

Microchip MPLAB XC8 Assembler V2.32 build 20210201212658 
                                                                                               Sun May 23 16:37:37 2021

Microchip MPLAB XC8 C Compiler v2.32 (Free license) build 20210201212658 Og1 
     1                           	processor	16F15244
     2                           	pagewidth 120
     3                           	opt	flic
     4                           	psect	stringtext1,global,class=STRCODE,delta=2,noexec
     5                           	psect	stringtext2,global,class=STRCODE,delta=2,noexec
     6                           	psect	stringtext3,global,class=STRCODE,delta=2,noexec
     7                           	psect	stringtext4,global,class=STRCODE,delta=2,noexec
     8                           	psect	stringtext5,global,class=STRCODE,delta=2,noexec
     9                           	psect	stringtext6,global,class=STRCODE,delta=2,noexec
    10                           	psect	stringtext7,global,class=STRCODE,delta=2,noexec
    11                           	psect	stringtext8,global,class=STRCODE,delta=2,noexec
    12                           	psect	stringtext9,global,class=STRCODE,delta=2,noexec
    13                           	psect	stringtext10,global,class=STRCODE,delta=2,noexec
    14                           	psect	stringtext11,global,class=STRCODE,delta=2,noexec
    15                           	psect	stringtext12,global,class=STRCODE,delta=2,noexec
    16                           	psect	stringtext13,global,class=STRCODE,delta=2,noexec
    17                           	psect	stringtext14,global,class=STRCODE,delta=2,noexec
    18                           	psect	stringtext15,global,class=STRCODE,delta=2,noexec
    19                           	psect	stringtext16,global,class=STRCODE,delta=2,noexec
    20                           	psect	cinit,global,class=CODE,merge=1,delta=2
    21                           	psect	bssBANK0,global,class=BANK0,space=1,delta=1,noexec
    22                           	psect	bssBANK1,global,class=BANK1,space=1,delta=1,noexec
    23                           	psect	clrtext,global,class=CODE,delta=2
    24                           	psect	cstackCOMMON,global,class=COMMON,space=1,delta=1,noexec
    25                           	psect	cstackBANK0,global,class=BANK0,space=1,delta=1,noexec
    26                           	psect	maintext,global,class=CODE,merge=1,split=1,delta=2
    27                           	psect	text1,local,class=CODE,merge=1,delta=2
    28                           	psect	text2,local,class=CODE,merge=1,delta=2
    29                           	psect	text3,local,class=CODE,merge=1,delta=2
    30                           	psect	text4,local,class=CODE,merge=1,delta=2
    31                           	psect	text5,local,class=CODE,merge=1,delta=2
    32                           	psect	text6,local,class=CODE,merge=1,delta=2
    33                           	psect	text7,local,class=CODE,merge=1,delta=2
    34                           	psect	text8,local,class=CODE,merge=1,delta=2
    35                           	psect	text9,local,class=CODE,merge=1,delta=2,group=3
    36                           	psect	text10,local,class=CODE,merge=1,delta=2,group=1
    37                           	psect	text11,local,class=CODE,merge=1,delta=2,group=1
    38                           	psect	text12,local,class=CODE,merge=1,delta=2,group=3
    39                           	psect	text13,local,class=CODE,merge=1,delta=2,group=3
    40                           	psect	text14,local,class=CODE,merge=1,delta=2
    41                           	psect	text15,local,class=CODE,merge=1,delta=2
    42                           	psect	text16,local,class=CODE,merge=1,delta=2
    43                           	psect	text17,local,class=CODE,merge=1,delta=2
    44                           	psect	text18,local,class=CODE,merge=1,delta=2
    45                           	psect	text19,local,class=CODE,merge=1,delta=2
    46                           	psect	text20,local,class=CODE,merge=1,delta=2
    47                           	psect	text21,local,class=CODE,merge=1,delta=2
    48                           	psect	config,global,abs,ovrld,class=CONFIG,space=4,delta=2,noexec
    49                           	dabs	1,0x7E,2
    50  0000                     
    51                           ; Version 2.30
    52                           ; Generated 15/09/2020 GMT
    53                           ; 
    54                           ; Copyright © 2020, Microchip Technology Inc. and its subsidiaries ("Microchip")
    55                           ; All rights reserved.
    56                           ; 
    57                           ; This software is developed by Microchip Technology Inc. and its subsidiaries ("Microch
      +                          ip").
    58                           ; 
    59                           ; Redistribution and use in source and binary forms, with or without modification, are
    60                           ; permitted provided that the following conditions are met:
    61                           ; 
    62                           ;     1. Redistributions of source code must retain the above copyright notice, this lis
      +                          t of
    63                           ;        conditions and the following disclaimer.
    64                           ; 
    65                           ;     2. Redistributions in binary form must reproduce the above copyright notice, this 
      +                          list
    66                           ;        of conditions and the following disclaimer in the documentation and/or other
    67                           ;        materials provided with the distribution. Publication is not required when
    68                           ;        this file is used in an embedded application.
    69                           ; 
    70                           ;     3. Microchip's name may not be used to endorse or promote products derived from th
      +                          is
    71                           ;        software without specific prior written permission.
    72                           ; 
    73                           ; THIS SOFTWARE IS PROVIDED BY MICROCHIP "AS IS" AND ANY EXPRESS OR IMPLIED WARRANTIES,
    74                           ; INCLUDING, BUT NOT LIMITED TO, THE IMPLIED WARRANTIES OF MERCHANTABILITY AND FITNESS F
      +                          OR
    75                           ; PURPOSE ARE DISCLAIMED.  IN NO EVENT SHALL MICROCHIP BE LIABLE FOR ANY DIRECT, INDIREC
      +                          T,
    76                           ; INCIDENTAL, SPECIAL, EXEMPLARY, OR CONSEQUENTIAL DAMAGES (INCLUDING BUT NOT LIMITED TO
    77                           ; PROCUREMENT OF SUBSTITUTE GOODS OR SERVICES; LOSS OF USE, DATA OR PROFITS; OR BUSINESS
    78                           ; INTERRUPTION) HOWSOEVER CAUSED AND ON ANY THEORY OF LIABILITY, WHETHER IN CONTRACT, ST
      +                          RICT
    79                           ; LIABILITY, OR TORT (INCLUDING NEGLIGENCE OR OTHERWISE) ARISING IN ANY WAY OUT OF THE U
      +                          SE OF
    80                           ; THIS SOFTWARE, EVEN IF ADVISED OF THE POSSIBILITY OF SUCH DAMAGE.
    81                           ; 
    82                           ; 
    83                           ; Code-generator required, PIC16F15244 Definitions
    84                           ; 
    85                           ; SFR Addresses
    86  0000                     	;# 
    87  0001                     	;# 
    88  0002                     	;# 
    89  0003                     	;# 
    90  0004                     	;# 
    91  0005                     	;# 
    92  0006                     	;# 
    93  0007                     	;# 
    94  0008                     	;# 
    95  0009                     	;# 
    96  000A                     	;# 
    97  000B                     	;# 
    98  000C                     	;# 
    99  000D                     	;# 
   100  000E                     	;# 
   101  0012                     	;# 
   102  0013                     	;# 
   103  0014                     	;# 
   104  0018                     	;# 
   105  0019                     	;# 
   106  001A                     	;# 
   107  009A                     	;# 
   108  009B                     	;# 
   109  009B                     	;# 
   110  009C                     	;# 
   111  009D                     	;# 
   112  009E                     	;# 
   113  009F                     	;# 
   114  010C                     	;# 
   115  010D                     	;# 
   116  0119                     	;# 
   117  011A                     	;# 
   118  011B                     	;# 
   119  011B                     	;# 
   120  011C                     	;# 
   121  011D                     	;# 
   122  011E                     	;# 
   123  011F                     	;# 
   124  018C                     	;# 
   125  018D                     	;# 
   126  018E                     	;# 
   127  018F                     	;# 
   128  0190                     	;# 
   129  0191                     	;# 
   130  0192                     	;# 
   131  020C                     	;# 
   132  020D                     	;# 
   133  020E                     	;# 
   134  020E                     	;# 
   135  020F                     	;# 
   136  020F                     	;# 
   137  0210                     	;# 
   138  0210                     	;# 
   139  0211                     	;# 
   140  0211                     	;# 
   141  028C                     	;# 
   142  028C                     	;# 
   143  028D                     	;# 
   144  028D                     	;# 
   145  028E                     	;# 
   146  028F                     	;# 
   147  0290                     	;# 
   148  0291                     	;# 
   149  030C                     	;# 
   150  030C                     	;# 
   151  030D                     	;# 
   152  030E                     	;# 
   153  030F                     	;# 
   154  0310                     	;# 
   155  0310                     	;# 
   156  0311                     	;# 
   157  0312                     	;# 
   158  0313                     	;# 
   159  0314                     	;# 
   160  0314                     	;# 
   161  0315                     	;# 
   162  0316                     	;# 
   163  0318                     	;# 
   164  0318                     	;# 
   165  0319                     	;# 
   166  031A                     	;# 
   167  059C                     	;# 
   168  059C                     	;# 
   169  059D                     	;# 
   170  059D                     	;# 
   171  059E                     	;# 
   172  059F                     	;# 
   173  070C                     	;# 
   174  070D                     	;# 
   175  070E                     	;# 
   176  0716                     	;# 
   177  0717                     	;# 
   178  0718                     	;# 
   179  080C                     	;# 
   180  0811                     	;# 
   181  0813                     	;# 
   182  0814                     	;# 
   183  081A                     	;# 
   184  081A                     	;# 
   185  081B                     	;# 
   186  081C                     	;# 
   187  081C                     	;# 
   188  081D                     	;# 
   189  081E                     	;# 
   190  081F                     	;# 
   191  088E                     	;# 
   192  0890                     	;# 
   193  0891                     	;# 
   194  0892                     	;# 
   195  0893                     	;# 
   196  090C                     	;# 
   197  1E8F                     	;# 
   198  1E90                     	;# 
   199  1E91                     	;# 
   200  1E92                     	;# 
   201  1E93                     	;# 
   202  1E9C                     	;# 
   203  1EA1                     	;# 
   204  1EA2                     	;# 
   205  1EC3                     	;# 
   206  1EC5                     	;# 
   207  1EC6                     	;# 
   208  1EC7                     	;# 
   209  1ECB                     	;# 
   210  1ECB                     	;# 
   211  1ECB                     	;# 
   212  1ECC                     	;# 
   213  1ECC                     	;# 
   214  1ECC                     	;# 
   215  1F10                     	;# 
   216  1F11                     	;# 
   217  1F12                     	;# 
   218  1F14                     	;# 
   219  1F15                     	;# 
   220  1F1C                     	;# 
   221  1F1D                     	;# 
   222  1F1E                     	;# 
   223  1F1F                     	;# 
   224  1F20                     	;# 
   225  1F21                     	;# 
   226  1F22                     	;# 
   227  1F23                     	;# 
   228  1F24                     	;# 
   229  1F25                     	;# 
   230  1F26                     	;# 
   231  1F27                     	;# 
   232  1F38                     	;# 
   233  1F39                     	;# 
   234  1F3A                     	;# 
   235  1F3B                     	;# 
   236  1F3C                     	;# 
   237  1F3D                     	;# 
   238  1F3E                     	;# 
   239  1F3F                     	;# 
   240  1F43                     	;# 
   241  1F44                     	;# 
   242  1F45                     	;# 
   243  1F46                     	;# 
   244  1F47                     	;# 
   245  1F48                     	;# 
   246  1F49                     	;# 
   247  1F4A                     	;# 
   248  1F4E                     	;# 
   249  1F4F                     	;# 
   250  1F50                     	;# 
   251  1F51                     	;# 
   252  1F52                     	;# 
   253  1F53                     	;# 
   254  1F54                     	;# 
   255  1F55                     	;# 
   256  1FE4                     	;# 
   257  1FE5                     	;# 
   258  1FE6                     	;# 
   259  1FE7                     	;# 
   260  1FE8                     	;# 
   261  1FE8                     	;# 
   262  1FE9                     	;# 
   263  1FEA                     	;# 
   264  1FEB                     	;# 
   265  1FED                     	;# 
   266  1FEE                     	;# 
   267  1FEF                     	;# 
   268  0019                     _LATBbits	set	25
   269  0018                     _LATAbits	set	24
   270  0014                     _TRISC	set	20
   271  0013                     _TRISB	set	19
   272  0012                     _TRISA	set	18
   273  001A                     _LATC	set	26
   274  0019                     _LATB	set	25
   275  0018                     _LATA	set	24
   276  000D                     _PORTBbits	set	13
   277  000E                     _PORTCbits	set	14
   278  0013                     _TRISBbits	set	19
   279  0014                     _TRISCbits	set	20
   280  0892                     _OSCTUNE	set	2194
   281  0893                     _OSCFRQ	set	2195
   282  0891                     _OSCEN	set	2193
   283  1F52                     _INLVLC	set	8018
   284  1F3C                     _INLVLA	set	7996
   285  1F51                     _SLRCONC	set	8017
   286  1F3B                     _SLRCONA	set	7995
   287  1F50                     _ODCONC	set	8016
   288  1F3A                     _ODCONA	set	7994
   289  1F38                     _ANSELA	set	7992
   290  1F4E                     _ANSELC	set	8014
   291                           
   292                           	psect	stringtext1
   293  0800                     __pstringtext1:
   294  0800                     STR_1:
   295  0800  343D               	retlw	61	;'='
   296  0801  343D               	retlw	61	;'='
   297  0802  343D               	retlw	61	;'='
   298  0803  343D               	retlw	61	;'='
   299  0804  343D               	retlw	61	;'='
   300  0805  343D               	retlw	61	;'='
   301  0806  343D               	retlw	61	;'='
   302  0807  343D               	retlw	61	;'='
   303  0808  343D               	retlw	61	;'='
   304  0809  343D               	retlw	61	;'='
   305  080A  343D               	retlw	61	;'='
   306  080B  343D               	retlw	61	;'='
   307  080C  343D               	retlw	61	;'='
   308  080D  343D               	retlw	61	;'='
   309  080E  343D               	retlw	61	;'='
   310  080F  343D               	retlw	61	;'='
   311  0810  343D               	retlw	61	;'='
   312  0811  343D               	retlw	61	;'='
   313  0812  343D               	retlw	61	;'='
   314  0813  343D               	retlw	61	;'='
   315  0814  3400               	retlw	0
   316                           
   317                           	psect	stringtext2
   318  0815                     __pstringtext2:
   319  0815                     STR_14:
   320  0815  343C               	retlw	60	;'<'
   321  0816  3432               	retlw	50	;'2'
   322  0817  343E               	retlw	62	;'>'
   323  0818  3420               	retlw	32	;' '
   324  0819  3456               	retlw	86	;'V'
   325  081A  346F               	retlw	111	;'o'
   326  081B  3464               	retlw	100	;'d'
   327  081C  346B               	retlw	107	;'k'
   328  081D  3461               	retlw	97	;'a'
   329  081E  3420               	retlw	32	;' '
   330  081F  3479               	retlw	121	;'y'
   331  0820  3420               	retlw	32	;' '
   332  0821  344E               	retlw	78	;'N'
   333  0822  3461               	retlw	97	;'a'
   334  0823  3472               	retlw	114	;'r'
   335  0824  3461               	retlw	97	;'a'
   336  0825  346E               	retlw	110	;'n'
   337  0826  346A               	retlw	106	;'j'
   338  0827  3461               	retlw	97	;'a'
   339  0828  3400               	retlw	0
   340                           
   341                           	psect	stringtext3
   342  0829                     __pstringtext3:
   343  0829                     STR_13:
   344  0829  343C               	retlw	60	;'<'
   345  082A  3431               	retlw	49	;'1'
   346  082B  343E               	retlw	62	;'>'
   347  082C  3420               	retlw	32	;' '
   348  082D  3456               	retlw	86	;'V'
   349  082E  346F               	retlw	111	;'o'
   350  082F  3464               	retlw	100	;'d'
   351  0830  346B               	retlw	107	;'k'
   352  0831  3461               	retlw	97	;'a'
   353  0832  3420               	retlw	32	;' '
   354  0833  3479               	retlw	121	;'y'
   355  0834  3420               	retlw	32	;' '
   356  0835  3447               	retlw	71	;'G'
   357  0836  3469               	retlw	105	;'i'
   358  0837  346E               	retlw	110	;'n'
   359  0838  3467               	retlw	103	;'g'
   360  0839  3465               	retlw	101	;'e'
   361  083A  3472               	retlw	114	;'r'
   362  083B  3400               	retlw	0
   363                           
   364                           	psect	stringtext4
   365  083C                     __pstringtext4:
   366  083C                     STR_16:
   367  083C  343C               	retlw	60	;'<'
   368  083D  3434               	retlw	52	;'4'
   369  083E  343E               	retlw	62	;'>'
   370  083F  3420               	retlw	32	;' '
   371  0840  3452               	retlw	82	;'R'
   372  0841  346F               	retlw	111	;'o'
   373  0842  346E               	retlw	110	;'n'
   374  0843  3420               	retlw	32	;' '
   375  0844  3479               	retlw	121	;'y'
   376  0845  3420               	retlw	32	;' '
   377  0846  344E               	retlw	78	;'N'
   378  0847  3461               	retlw	97	;'a'
   379  0848  3472               	retlw	114	;'r'
   380  0849  3461               	retlw	97	;'a'
   381  084A  346E               	retlw	110	;'n'
   382  084B  346A               	retlw	106	;'j'
   383  084C  3461               	retlw	97	;'a'
   384  084D  3400               	retlw	0
   385                           
   386                           	psect	stringtext5
   387  084E                     __pstringtext5:
   388  084E                     STR_11:
   389  084E  3451               	retlw	81	;'Q'
   390  084F  3455               	retlw	85	;'U'
   391  0850  3445               	retlw	69	;'E'
   392  0851  3420               	retlw	32	;' '
   393  0852  344C               	retlw	76	;'L'
   394  0853  344F               	retlw	79	;'O'
   395  0854  3420               	retlw	32	;' '
   396  0855  3444               	retlw	68	;'D'
   397  0856  3449               	retlw	73	;'I'
   398  0857  3453               	retlw	83	;'S'
   399  0858  3446               	retlw	70	;'F'
   400  0859  3452               	retlw	82	;'R'
   401  085A  3455               	retlw	85	;'U'
   402  085B  3454               	retlw	84	;'T'
   403  085C  3445               	retlw	69	;'E'
   404  085D  3453               	retlw	83	;'S'
   405  085E  3400               	retlw	0
   406                           
   407                           	psect	stringtext6
   408  085F                     __pstringtext6:
   409  085F                     STR_15:
   410  085F  343C               	retlw	60	;'<'
   411  0860  3433               	retlw	51	;'3'
   412  0861  343E               	retlw	62	;'>'
   413  0862  3420               	retlw	32	;' '
   414  0863  3452               	retlw	82	;'R'
   415  0864  346F               	retlw	111	;'o'
   416  0865  346E               	retlw	110	;'n'
   417  0866  3420               	retlw	32	;' '
   418  0867  3479               	retlw	121	;'y'
   419  0868  3420               	retlw	32	;' '
   420  0869  3447               	retlw	71	;'G'
   421  086A  3469               	retlw	105	;'i'
   422  086B  346E               	retlw	110	;'n'
   423  086C  3467               	retlw	103	;'g'
   424  086D  3465               	retlw	101	;'e'
   425  086E  3472               	retlw	114	;'r'
   426  086F  3400               	retlw	0
   427                           
   428                           	psect	stringtext7
   429  0870                     __pstringtext7:
   430  0870                     STR_23:
   431  0870  3456               	retlw	86	;'V'
   432  0871  344F               	retlw	79	;'O'
   433  0872  3444               	retlw	68	;'D'
   434  0873  344B               	retlw	75	;'K'
   435  0874  3441               	retlw	65	;'A'
   436  0875  3420               	retlw	32	;' '
   437  0876  3459               	retlw	89	;'Y'
   438  0877  3420               	retlw	32	;' '
   439  0878  344E               	retlw	78	;'N'
   440  0879  3441               	retlw	65	;'A'
   441  087A  3452               	retlw	82	;'R'
   442  087B  3441               	retlw	65	;'A'
   443  087C  344E               	retlw	78	;'N'
   444  087D  344A               	retlw	74	;'J'
   445  087E  3441               	retlw	65	;'A'
   446  087F  3400               	retlw	0
   447                           
   448                           	psect	stringtext8
   449  0880                     __pstringtext8:
   450  0880                     STR_2:
   451  0880  3444               	retlw	68	;'D'
   452  0881  3449               	retlw	73	;'I'
   453  0882  3453               	retlw	83	;'S'
   454  0883  3450               	retlw	80	;'P'
   455  0884  3445               	retlw	69	;'E'
   456  0885  344E               	retlw	78	;'N'
   457  0886  3453               	retlw	83	;'S'
   458  0887  3441               	retlw	65	;'A'
   459  0888  3444               	retlw	68	;'D'
   460  0889  344F               	retlw	79	;'O'
   461  088A  3452               	retlw	82	;'R'
   462  088B  3420               	retlw	32	;' '
   463  088C  3444               	retlw	68	;'D'
   464  088D  3445               	retlw	69	;'E'
   465  088E  3400               	retlw	0
   466                           
   467                           	psect	stringtext9
   468  088F                     __pstringtext9:
   469  088F                     STR_19:
   470  088F  3456               	retlw	86	;'V'
   471  0890  344F               	retlw	79	;'O'
   472  0891  3444               	retlw	68	;'D'
   473  0892  344B               	retlw	75	;'K'
   474  0893  3441               	retlw	65	;'A'
   475  0894  3420               	retlw	32	;' '
   476  0895  3479               	retlw	121	;'y'
   477  0896  3420               	retlw	32	;' '
   478  0897  3447               	retlw	71	;'G'
   479  0898  3449               	retlw	73	;'I'
   480  0899  344E               	retlw	78	;'N'
   481  089A  3447               	retlw	71	;'G'
   482  089B  3445               	retlw	69	;'E'
   483  089C  3452               	retlw	82	;'R'
   484  089D  3400               	retlw	0
   485                           
   486                           	psect	stringtext10
   487  089E                     __pstringtext10:
   488  089E                     STR_31:
   489  089E  3452               	retlw	82	;'R'
   490  089F  344F               	retlw	79	;'O'
   491  08A0  344E               	retlw	78	;'N'
   492  08A1  3420               	retlw	32	;' '
   493  08A2  3459               	retlw	89	;'Y'
   494  08A3  3420               	retlw	32	;' '
   495  08A4  344E               	retlw	78	;'N'
   496  08A5  3441               	retlw	65	;'A'
   497  08A6  3452               	retlw	82	;'R'
   498  08A7  3441               	retlw	65	;'A'
   499  08A8  344E               	retlw	78	;'N'
   500  08A9  344A               	retlw	74	;'J'
   501  08AA  3441               	retlw	65	;'A'
   502  08AB  3400               	retlw	0
   503                           
   504                           	psect	stringtext11
   505  08AC                     __pstringtext11:
   506  08AC                     STR_27:
   507  08AC  3452               	retlw	82	;'R'
   508  08AD  344F               	retlw	79	;'O'
   509  08AE  344E               	retlw	78	;'N'
   510  08AF  3420               	retlw	32	;' '
   511  08B0  3459               	retlw	89	;'Y'
   512  08B1  3420               	retlw	32	;' '
   513  08B2  3447               	retlw	71	;'G'
   514  08B3  3449               	retlw	73	;'I'
   515  08B4  344E               	retlw	78	;'N'
   516  08B5  3447               	retlw	71	;'G'
   517  08B6  3445               	retlw	69	;'E'
   518  08B7  3452               	retlw	82	;'R'
   519  08B8  3400               	retlw	0
   520                           
   521                           	psect	stringtext12
   522  08B9                     __pstringtext12:
   523  08B9                     STR_18:
   524  08B9  3450               	retlw	80	;'P'
   525  08BA  3452               	retlw	82	;'R'
   526  08BB  3445               	retlw	69	;'E'
   527  08BC  3450               	retlw	80	;'P'
   528  08BD  3441               	retlw	65	;'A'
   529  08BE  3452               	retlw	82	;'R'
   530  08BF  3441               	retlw	65	;'A'
   531  08C0  344E               	retlw	78	;'N'
   532  08C1  3444               	retlw	68	;'D'
   533  08C2  344F               	retlw	79	;'O'
   534  08C3  3400               	retlw	0
   535                           
   536                           	psect	stringtext13
   537  08C4                     __pstringtext13:
   538  08C4                     STR_3:
   539  08C4  3443               	retlw	67	;'C'
   540  08C5  344F               	retlw	79	;'O'
   541  08C6  3443               	retlw	67	;'C'
   542  08C7  3454               	retlw	84	;'T'
   543  08C8  3445               	retlw	69	;'E'
   544  08C9  344C               	retlw	76	;'L'
   545  08CA  3445               	retlw	69	;'E'
   546  08CB  3453               	retlw	83	;'S'
   547  08CC  3400               	retlw	0
   548                           
   549                           	psect	stringtext14
   550  08CD                     __pstringtext14:
   551  08CD                     STR_10:
   552  08CD  3447               	retlw	71	;'G'
   553  08CE  3452               	retlw	82	;'R'
   554  08CF  3441               	retlw	65	;'A'
   555  08D0  3443               	retlw	67	;'C'
   556  08D1  3449               	retlw	73	;'I'
   557  08D2  3441               	retlw	65	;'A'
   558  08D3  3453               	retlw	83	;'S'
   559  08D4  3400               	retlw	0
   560                           
   561                           	psect	stringtext15
   562  08D5                     __pstringtext15:
   563  08D5                     STR_6:
   564  08D5  344D               	retlw	77	;'M'
   565  08D6  3445               	retlw	69	;'E'
   566  08D7  344E               	retlw	78	;'N'
   567  08D8  3455               	retlw	85	;'U'
   568  08D9  3400               	retlw	0
   569                           
   570                           	psect	stringtext16
   571  0000                     __pstringtext16:
   572  0800                     
   573                           	psect	cinit
   574  07ED                     start_initialization:	
   575                           ; #config settings
   576                           
   577  07ED                     __initialization:
   578                           
   579                           ; Clear objects allocated to BANK0
   580  07ED  3020               	movlw	low __pbssBANK0
   581  07EE  0084               	movwf	4
   582  07EF  3000               	movlw	high __pbssBANK0
   583  07F0  0085               	movwf	5
   584  07F1  301C               	movlw	28
   585  07F2  318E  2602  3187   	fcall	clear_ram0
   586                           
   587                           ; Clear objects allocated to BANK1
   588  07F5  30A0               	movlw	low __pbssBANK1
   589  07F6  0084               	movwf	4
   590  07F7  3000               	movlw	high __pbssBANK1
   591  07F8  0085               	movwf	5
   592  07F9  3020               	movlw	32
   593  07FA  318E  2602  3187   	fcall	clear_ram0
   594  07FD                     end_of_initialization:	
   595                           ;End of C runtime variable initialization code
   596                           
   597  07FD                     __end_of__initialization:
   598  07FD  0140               	movlb	0
   599  07FE  318E  2EEB         	ljmp	_main	;jump to C main() function
   600                           
   601                           	psect	bssBANK0
   602  0020                     __pbssBANK0:
   603  0020                     _nout:
   604  0020                     	ds	2
   605  0022                     _width:
   606  0022                     	ds	2
   607  0024                     _prec:
   608  0024                     	ds	2
   609  0026                     _flags:
   610  0026                     	ds	2
   611  0028                     _s:
   612  0028                     	ds	20
   613                           
   614                           	psect	bssBANK1
   615  00A0                     __pbssBANK1:
   616  00A0                     _dbuf:
   617  00A0                     	ds	32
   618                           
   619                           	psect	clrtext
   620  0E02                     clear_ram0:	
   621                           ;	Called with FSR0 containing the base address, and
   622                           ;	WREG with the size to clear
   623                           
   624  0E02  0064               	clrwdt	;clear the watchdog before getting into this loop
   625  0E03                     clrloop0:
   626  0E03  0180               	clrf	0	;clear RAM location pointed to by FSR
   627  0E04  3101               	addfsr 0,1
   628  0E05  0B89               	decfsz	9,f	;Have we reached the end of clearing yet?
   629  0E06  2E03               	goto	clrloop0	;have we reached the end yet?
   630  0E07  3400               	retlw	0	;all done for this memory range, return
   631                           
   632                           	psect	cstackCOMMON
   633  0070                     __pcstackCOMMON:
   634  0070                     ?_Lcd_Cmd:
   635  0070                     ??_Lcd_Cmd:	
   636                           ; 1 bytes @ 0x0
   637                           
   638  0070                     ?_Lcd_Chr_CP:	
   639                           ; 1 bytes @ 0x0
   640                           
   641  0070                     ??_Lcd_Chr_CP:	
   642                           ; 1 bytes @ 0x0
   643                           
   644  0070                     ?_putch:	
   645                           ; 1 bytes @ 0x0
   646                           
   647  0070                     ??_putch:	
   648                           ; 1 bytes @ 0x0
   649                           
   650  0070                     ?_Lcd_Init:	
   651                           ; 1 bytes @ 0x0
   652                           
   653  0070                     ?_PIN_MANAGER_Initialize:	
   654                           ; 1 bytes @ 0x0
   655                           
   656  0070                     ??_PIN_MANAGER_Initialize:	
   657                           ; 1 bytes @ 0x0
   658                           
   659  0070                     ?_OSCILLATOR_Initialize:	
   660                           ; 1 bytes @ 0x0
   661                           
   662  0070                     ??_OSCILLATOR_Initialize:	
   663                           ; 1 bytes @ 0x0
   664                           
   665  0070                     ?_saludo:	
   666                           ; 1 bytes @ 0x0
   667                           
   668  0070                     ?_despedida:	
   669                           ; 1 bytes @ 0x0
   670                           
   671  0070                     ?_menu:	
   672                           ; 1 bytes @ 0x0
   673                           
   674  0070                     ?_secuencias_leds:	
   675                           ; 1 bytes @ 0x0
   676                           
   677  0070                     ??_secuencias_leds:	
   678                           ; 1 bytes @ 0x0
   679                           
   680  0070                     ?_secuencias_leds3:	
   681                           ; 1 bytes @ 0x0
   682                           
   683  0070                     ??_secuencias_leds3:	
   684                           ; 1 bytes @ 0x0
   685                           
   686  0070                     ?_secuencias_leds4:	
   687                           ; 1 bytes @ 0x0
   688                           
   689  0070                     ??_secuencias_leds4:	
   690                           ; 1 bytes @ 0x0
   691                           
   692  0070                     ?_coctel_1:	
   693                           ; 1 bytes @ 0x0
   694                           
   695  0070                     ?_coctel_2:	
   696                           ; 1 bytes @ 0x0
   697                           
   698  0070                     ?_coctel_3:	
   699                           ; 1 bytes @ 0x0
   700                           
   701  0070                     ?_coctel_4:	
   702                           ; 1 bytes @ 0x0
   703                           
   704  0070                     ?_main:	
   705                           ; 1 bytes @ 0x0
   706                           
   707  0070                     ?_fputc:	
   708                           ; 1 bytes @ 0x0
   709                           
   710  0070                     putch@c:	
   711                           ; 2 bytes @ 0x0
   712                           
   713  0070                     fputc@c:	
   714                           ; 1 bytes @ 0x0
   715                           
   716                           
   717                           ; 2 bytes @ 0x0
   718  0070                     	ds	1
   719  0071                     secuencias_leds@i:
   720  0071                     secuencias_leds3@i:	
   721                           ; 2 bytes @ 0x1
   722                           
   723  0071                     secuencias_leds4@i:	
   724                           ; 2 bytes @ 0x1
   725                           
   726                           
   727                           ; 2 bytes @ 0x1
   728  0071                     	ds	1
   729  0072                     Lcd_Chr_CP@data:
   730  0072                     Lcd_Cmd@data:	
   731                           ; 1 bytes @ 0x2
   732                           
   733  0072                     fputc@fp:	
   734                           ; 1 bytes @ 0x2
   735                           
   736                           
   737                           ; 1 bytes @ 0x2
   738  0072                     	ds	1
   739  0073                     ??_fputc:
   740  0073                     ??_Lcd_Init:	
   741                           ; 1 bytes @ 0x3
   742                           
   743  0073                     ?_Lcd_Out2:	
   744                           ; 1 bytes @ 0x3
   745                           
   746  0073                     Lcd_Out2@x:	
   747                           ; 1 bytes @ 0x3
   748                           
   749                           
   750                           ; 1 bytes @ 0x3
   751  0073                     	ds	1
   752  0074                     Lcd_Init@data:
   753  0074                     Lcd_Out2@buffer:	
   754                           ; 1 bytes @ 0x4
   755                           
   756                           
   757                           ; 1 bytes @ 0x4
   758  0074                     	ds	1
   759  0075                     ??_Lcd_Out2:
   760                           
   761                           ; 1 bytes @ 0x5
   762  0075                     	ds	2
   763  0077                     Lcd_Out2@y:
   764                           
   765                           ; 1 bytes @ 0x7
   766  0077                     	ds	1
   767  0078                     ?_vfpfcnvrt:
   768  0078                     Lcd_Out2@data:	
   769                           ; 2 bytes @ 0x8
   770                           
   771  0078                     vfpfcnvrt@fmt:	
   772                           ; 1 bytes @ 0x8
   773                           
   774                           
   775                           ; 1 bytes @ 0x8
   776  0078                     	ds	1
   777  0079                     vfpfcnvrt@ap:
   778                           
   779                           ; 1 bytes @ 0x9
   780  0079                     	ds	1
   781  007A                     vfpfcnvrt@fp:
   782                           
   783                           ; 1 bytes @ 0xA
   784  007A                     	ds	1
   785  007B                     ?_vfprintf:
   786  007B                     vfprintf@fmt:	
   787                           ; 2 bytes @ 0xB
   788                           
   789                           
   790                           ; 2 bytes @ 0xB
   791  007B                     	ds	2
   792  007D                     vfprintf@ap:
   793                           
   794                           ; 1 bytes @ 0xD
   795  007D                     	ds	1
   796  007E                     ??_main:
   797                           
   798                           	psect	cstackBANK0
   799  003C                     __pcstackBANK0:	
   800                           ; 1 bytes @ 0xE
   801                           
   802  003C                     ??_vfpfcnvrt:
   803                           
   804                           ; 1 bytes @ 0x0
   805  003C                     	ds	5
   806  0041                     ??_vfprintf:
   807                           
   808                           ; 1 bytes @ 0x5
   809  0041                     	ds	2
   810  0043                     vfprintf@fp:
   811                           
   812                           ; 1 bytes @ 0x7
   813  0043                     	ds	1
   814  0044                     vfprintf@cfmt:
   815                           
   816                           ; 2 bytes @ 0x8
   817  0044                     	ds	2
   818  0046                     ?_sprintf:
   819  0046                     sprintf@fmt:	
   820                           ; 2 bytes @ 0xA
   821                           
   822                           
   823                           ; 2 bytes @ 0xA
   824  0046                     	ds	2
   825  0048                     ??_sprintf:
   826                           
   827                           ; 1 bytes @ 0xC
   828  0048                     	ds	1
   829  0049                     sprintf@ap:
   830                           
   831                           ; 1 bytes @ 0xD
   832  0049                     	ds	1
   833  004A                     sprintf@f:
   834                           
   835                           ; 5 bytes @ 0xE
   836  004A                     	ds	5
   837  004F                     sprintf@s:
   838                           
   839                           ; 1 bytes @ 0x13
   840  004F                     	ds	1
   841  0050                     ??_saludo:
   842  0050                     ??_despedida:	
   843                           ; 1 bytes @ 0x14
   844                           
   845  0050                     ??_menu:	
   846                           ; 1 bytes @ 0x14
   847                           
   848  0050                     ??_coctel_1:	
   849                           ; 1 bytes @ 0x14
   850                           
   851  0050                     ??_coctel_2:	
   852                           ; 1 bytes @ 0x14
   853                           
   854  0050                     ??_coctel_3:	
   855                           ; 1 bytes @ 0x14
   856                           
   857  0050                     ??_coctel_4:	
   858                           ; 1 bytes @ 0x14
   859                           
   860                           
   861                           ; 1 bytes @ 0x14
   862  0050                     	ds	2
   863                           
   864                           	psect	maintext
   865  0EEB                     __pmaintext:	
   866 ;;
   867 ;;Main: autosize = 0, tempsize = 0, incstack = 0, save=0
   868 ;;
   869 ;; *************** function _main *****************
   870 ;; Defined at:
   871 ;;		line 574 in file "main.c"
   872 ;; Parameters:    Size  Location     Type
   873 ;;		None
   874 ;; Auto vars:     Size  Location     Type
   875 ;;		None
   876 ;; Return value:  Size  Location     Type
   877 ;;                  1    wreg      void 
   878 ;; Registers used:
   879 ;;		wreg, fsr0l, fsr0h, fsr1l, fsr1h, status,2, status,0, pclath, cstack
   880 ;; Tracked objects:
   881 ;;		On entry : B3F/0
   882 ;;		On exit  : 0/0
   883 ;;		Unchanged: 0/0
   884 ;; Data sizes:     COMMON   BANK0   BANK1   BANK2   BANK3   BANK4   BANK5   BANK6
   885 ;;      Params:         0       0       0       0       0       0       0       0
   886 ;;      Locals:         0       0       0       0       0       0       0       0
   887 ;;      Temps:          0       0       0       0       0       0       0       0
   888 ;;      Totals:         0       0       0       0       0       0       0       0
   889 ;;Total ram usage:        0 bytes
   890 ;; Hardware stack levels required when called: 6
   891 ;; This function calls:
   892 ;;		_Lcd_Cmd
   893 ;;		_Lcd_Init
   894 ;;		_OSCILLATOR_Initialize
   895 ;;		_PIN_MANAGER_Initialize
   896 ;;		_coctel_1
   897 ;;		_coctel_2
   898 ;;		_coctel_3
   899 ;;		_coctel_4
   900 ;;		_despedida
   901 ;;		_menu
   902 ;;		_saludo
   903 ;; This function is called by:
   904 ;;		Startup code after reset
   905 ;; This function uses a non-reentrant model
   906 ;;
   907                           
   908                           
   909                           ;psect for function _main
   910  0EEB                     _main:
   911  0EEB                     l1740:	
   912                           ;incstack = 0
   913                           ; Regs used in _main: [wreg-fsr1h+status,2+status,0+pclath+cstack]
   914                           
   915                           
   916                           ;main.c: 577:     PIN_MANAGER_Initialize();
   917  0EEB  3180  2006  318E   	fcall	_PIN_MANAGER_Initialize
   918  0EEE                     l1742:
   919                           
   920                           ;main.c: 578:     OSCILLATOR_Initialize();
   921  0EEE  318D  25FD  318E   	fcall	_OSCILLATOR_Initialize
   922  0EF1                     l1744:
   923                           
   924                           ;main.c: 580:     Lcd_Init();
   925  0EF1  3182  2293  318E   	fcall	_Lcd_Init
   926  0EF4                     l1746:
   927                           
   928                           ;main.c: 581:     Lcd_Cmd(1);
   929  0EF4  3001               	movlw	1
   930  0EF5  3183  231F  318E   	fcall	_Lcd_Cmd
   931  0EF8                     l1748:
   932                           
   933                           ;main.c: 582:     Lcd_Cmd(12);
   934  0EF8  300C               	movlw	12
   935  0EF9  3183  231F  318E   	fcall	_Lcd_Cmd
   936  0EFC                     l1750:
   937                           
   938                           ;main.c: 584:     saludo();
   939  0EFC  3184  2444  318E   	fcall	_saludo
   940  0EFF                     l1752:
   941                           
   942                           ;main.c: 585:     menu();
   943  0EFF  318F  273E  318E   	fcall	_menu
   944  0F02                     l1754:
   945                           
   946                           ;main.c: 589:         if (PORTCbits.RC0 == 0) {
   947  0F02  0140               	movlb	0	; select bank0
   948  0F03  180E               	btfsc	14,0	;volatile
   949  0F04  2F06               	goto	u391
   950  0F05  2F07               	goto	u390
   951  0F06                     u391:
   952  0F06  2F11               	goto	l146
   953  0F07                     u390:
   954  0F07                     l1756:
   955                           
   956                           ;main.c: 590:             coctel_1();
   957  0F07  3180  2097  318E   	fcall	_coctel_1
   958                           
   959                           ;main.c: 591:             despedida();
   960  0F0A  318F  279C  318E   	fcall	_despedida
   961                           
   962                           ;main.c: 592:             menu();
   963  0F0D  318F  273E  318E   	fcall	_menu
   964                           
   965                           ;main.c: 593:         }
   966  0F10  2F02               	goto	l1754
   967  0F11                     l146:	
   968                           ;main.c: 594:         else if(PORTCbits.RC1 == 0) {
   969                           
   970  0F11  188E               	btfsc	14,1	;volatile
   971  0F12  2F14               	goto	u401
   972  0F13  2F15               	goto	u400
   973  0F14                     u401:
   974  0F14  2F1F               	goto	l148
   975  0F15                     u400:
   976  0F15                     l1758:
   977                           
   978                           ;main.c: 596:             coctel_2();
   979  0F15  3181  2116  318E   	fcall	_coctel_2
   980                           
   981                           ;main.c: 597:             despedida();
   982  0F18  318F  279C  318E   	fcall	_despedida
   983                           
   984                           ;main.c: 598:             menu();
   985  0F1B  318F  273E  318E   	fcall	_menu
   986                           
   987                           ;main.c: 599:         }
   988  0F1E  2F02               	goto	l1754
   989  0F1F                     l148:	
   990                           ;main.c: 600:         else if(PORTCbits.RC2 == 0) {
   991                           
   992  0F1F  190E               	btfsc	14,2	;volatile
   993  0F20  2F22               	goto	u411
   994  0F21  2F23               	goto	u410
   995  0F22                     u411:
   996  0F22  2F2D               	goto	l150
   997  0F23                     u410:
   998  0F23                     l1760:
   999                           
  1000                           ;main.c: 602:             coctel_3();
  1001  0F23  3181  2195  318E   	fcall	_coctel_3
  1002                           
  1003                           ;main.c: 603:             despedida();
  1004  0F26  318F  279C  318E   	fcall	_despedida
  1005                           
  1006                           ;main.c: 604:             menu();
  1007  0F29  318F  273E  318E   	fcall	_menu
  1008                           
  1009                           ;main.c: 605:         }
  1010  0F2C  2F02               	goto	l1754
  1011  0F2D                     l150:	
  1012                           ;main.c: 606:         else if(PORTCbits.RC3 == 0) {
  1013                           
  1014  0F2D  198E               	btfsc	14,3	;volatile
  1015  0F2E  2F30               	goto	u421
  1016  0F2F  2F31               	goto	u420
  1017  0F30                     u421:
  1018  0F30  2F3B               	goto	l147
  1019  0F31                     u420:
  1020  0F31                     l1762:
  1021                           
  1022                           ;main.c: 608:             coctel_4();
  1023  0F31  3182  2214  318E   	fcall	_coctel_4
  1024                           
  1025                           ;main.c: 609:             despedida();
  1026  0F34  318F  279C  318E   	fcall	_despedida
  1027                           
  1028                           ;main.c: 610:             menu();
  1029  0F37  318F  273E  318E   	fcall	_menu
  1030  0F3A  2F02               	goto	l1754
  1031  0F3B                     l147:
  1032  0F3B  2F02               	goto	l1754
  1033  0F3C  3180  2802         	ljmp	start
  1034  0F3E                     __end_of_main:
  1035                           
  1036                           	psect	text1
  1037  0444                     __ptext1:	
  1038 ;; *************** function _saludo *****************
  1039 ;; Defined at:
  1040 ;;		line 144 in file "main.c"
  1041 ;; Parameters:    Size  Location     Type
  1042 ;;		None
  1043 ;; Auto vars:     Size  Location     Type
  1044 ;;		None
  1045 ;; Return value:  Size  Location     Type
  1046 ;;                  1    wreg      void 
  1047 ;; Registers used:
  1048 ;;		wreg, fsr0l, fsr0h, fsr1l, fsr1h, status,2, status,0, pclath, cstack
  1049 ;; Tracked objects:
  1050 ;;		On entry : 0/0
  1051 ;;		On exit  : 0/0
  1052 ;;		Unchanged: 0/0
  1053 ;; Data sizes:     COMMON   BANK0   BANK1   BANK2   BANK3   BANK4   BANK5   BANK6
  1054 ;;      Params:         0       0       0       0       0       0       0       0
  1055 ;;      Locals:         0       0       0       0       0       0       0       0
  1056 ;;      Temps:          0       2       0       0       0       0       0       0
  1057 ;;      Totals:         0       2       0       0       0       0       0       0
  1058 ;;Total ram usage:        2 bytes
  1059 ;; Hardware stack levels used: 1
  1060 ;; Hardware stack levels required when called: 5
  1061 ;; This function calls:
  1062 ;;		_Lcd_Cmd
  1063 ;;		_Lcd_Out2
  1064 ;;		_sprintf
  1065 ;; This function is called by:
  1066 ;;		_main
  1067 ;; This function uses a non-reentrant model
  1068 ;;
  1069                           
  1070                           
  1071                           ;psect for function _saludo
  1072  0444                     _saludo:
  1073  0444                     l1542:	
  1074                           ;incstack = 0
  1075                           ; Regs used in _saludo: [wreg-fsr1h+status,2+status,0+pclath+cstack]
  1076                           
  1077                           
  1078                           ;main.c: 146:     Lcd_Cmd(1);
  1079  0444  3001               	movlw	1
  1080  0445  3183  231F  3184   	fcall	_Lcd_Cmd
  1081  0448                     l1544:
  1082                           
  1083                           ;main.c: 147:     sprintf(s, "====================");
  1084  0448  3000               	movlw	low (STR_1| (0+32768))
  1085  0449  0140               	movlb	0	; select bank0
  1086  044A  00C6               	movwf	sprintf@fmt
  1087  044B  3088               	movlw	high (STR_1| (0+32768))
  1088  044C  00C7               	movwf	sprintf@fmt+1
  1089  044D  3028               	movlw	(low (_s| 0))& (0+255)
  1090  044E  318E  2608  3184   	fcall	_sprintf
  1091  0451                     l1546:
  1092                           
  1093                           ;main.c: 148:     Lcd_Out2(1, 0, s);
  1094  0451  01F3               	clrf	Lcd_Out2@x
  1095  0452  3028               	movlw	(low (_s| 0))& (0+255)
  1096  0453  0140               	movlb	0	; select bank0
  1097  0454  00D0               	movwf	??_saludo
  1098  0455  0850               	movf	??_saludo,w
  1099  0456  00F4               	movwf	Lcd_Out2@buffer
  1100  0457  3001               	movlw	1
  1101  0458  318E  2653  3184   	fcall	_Lcd_Out2
  1102  045B                     l1548:
  1103                           
  1104                           ;main.c: 149:     sprintf(s, "DISPENSADOR DE");
  1105  045B  3080               	movlw	low (STR_2| (0+32768))
  1106  045C  0140               	movlb	0	; select bank0
  1107  045D  00C6               	movwf	sprintf@fmt
  1108  045E  3088               	movlw	high (STR_2| (0+32768))
  1109  045F  00C7               	movwf	sprintf@fmt+1
  1110  0460  3028               	movlw	(low (_s| 0))& (0+255)
  1111  0461  318E  2608  3184   	fcall	_sprintf
  1112  0464                     l1550:
  1113                           
  1114                           ;main.c: 150:     Lcd_Out2(2, 3, s);
  1115  0464  3003               	movlw	3
  1116  0465  0140               	movlb	0	; select bank0
  1117  0466  00D0               	movwf	??_saludo
  1118  0467  0850               	movf	??_saludo,w
  1119  0468  00F3               	movwf	Lcd_Out2@x
  1120  0469  3028               	movlw	(low (_s| 0))& (0+255)
  1121  046A  00D1               	movwf	??_saludo+1
  1122  046B  0851               	movf	??_saludo+1,w
  1123  046C  00F4               	movwf	Lcd_Out2@buffer
  1124  046D  3002               	movlw	2
  1125  046E  318E  2653  3184   	fcall	_Lcd_Out2
  1126  0471                     l1552:
  1127                           
  1128                           ;main.c: 151:     sprintf(s, "COCTELES");
  1129  0471  30C4               	movlw	low (STR_3| (0+32768))
  1130  0472  0140               	movlb	0	; select bank0
  1131  0473  00C6               	movwf	sprintf@fmt
  1132  0474  3088               	movlw	high (STR_3| (0+32768))
  1133  0475  00C7               	movwf	sprintf@fmt+1
  1134  0476  3028               	movlw	(low (_s| 0))& (0+255)
  1135  0477  318E  2608  3184   	fcall	_sprintf
  1136  047A                     l1554:
  1137                           
  1138                           ;main.c: 152:     Lcd_Out2(3, 6, s);
  1139  047A  3006               	movlw	6
  1140  047B  0140               	movlb	0	; select bank0
  1141  047C  00D0               	movwf	??_saludo
  1142  047D  0850               	movf	??_saludo,w
  1143  047E  00F3               	movwf	Lcd_Out2@x
  1144  047F  3028               	movlw	(low (_s| 0))& (0+255)
  1145  0480  00D1               	movwf	??_saludo+1
  1146  0481  0851               	movf	??_saludo+1,w
  1147  0482  00F4               	movwf	Lcd_Out2@buffer
  1148  0483  3003               	movlw	3
  1149  0484  318E  2653  3184   	fcall	_Lcd_Out2
  1150  0487                     l1556:
  1151                           
  1152                           ;main.c: 153:     sprintf(s, "====================");
  1153  0487  3000               	movlw	low (STR_1| (0+32768))
  1154  0488  0140               	movlb	0	; select bank0
  1155  0489  00C6               	movwf	sprintf@fmt
  1156  048A  3088               	movlw	high (STR_1| (0+32768))
  1157  048B  00C7               	movwf	sprintf@fmt+1
  1158  048C  3028               	movlw	(low (_s| 0))& (0+255)
  1159  048D  318E  2608  3184   	fcall	_sprintf
  1160  0490                     l1558:
  1161                           
  1162                           ;main.c: 154:     Lcd_Out2(4, 0, s);
  1163  0490  01F3               	clrf	Lcd_Out2@x
  1164  0491  3028               	movlw	(low (_s| 0))& (0+255)
  1165  0492  0140               	movlb	0	; select bank0
  1166  0493  00D0               	movwf	??_saludo
  1167  0494  0850               	movf	??_saludo,w
  1168  0495  00F4               	movwf	Lcd_Out2@buffer
  1169  0496  3004               	movlw	4
  1170  0497  318E  2653  3184   	fcall	_Lcd_Out2
  1171  049A                     l1560:
  1172                           
  1173                           ;main.c: 155:     _delay((unsigned long)((5000)*(1000000/4000.0)));
  1174  049A  3007               	movlw	7
  1175  049B  0140               	movlb	0	; select bank0
  1176  049C  00D1               	movwf	??_saludo+1
  1177  049D  3058               	movlw	88
  1178  049E  00D0               	movwf	??_saludo
  1179  049F  3059               	movlw	89
  1180  04A0                     u437:
  1181  04A0  0B89               	decfsz	9,f
  1182  04A1  2CA0               	goto	u437
  1183  04A2  0BD0               	decfsz	??_saludo,f
  1184  04A3  2CA0               	goto	u437
  1185  04A4  0BD1               	decfsz	??_saludo+1,f
  1186  04A5  2CA0               	goto	u437
  1187  04A6  3200               	nop2
  1188  04A7                     l1562:
  1189                           
  1190                           ;main.c: 157:           Lcd_Cmd(1);
  1191  04A7  3001               	movlw	1
  1192  04A8  3183  231F  3184   	fcall	_Lcd_Cmd
  1193  04AB                     l1564:
  1194                           
  1195                           ;main.c: 158:           sprintf(s, "====================");
  1196  04AB  3000               	movlw	low (STR_1| (0+32768))
  1197  04AC  0140               	movlb	0	; select bank0
  1198  04AD  00C6               	movwf	sprintf@fmt
  1199  04AE  3088               	movlw	high (STR_1| (0+32768))
  1200  04AF  00C7               	movwf	sprintf@fmt+1
  1201  04B0  3028               	movlw	(low (_s| 0))& (0+255)
  1202  04B1  318E  2608  3184   	fcall	_sprintf
  1203  04B4                     l1566:
  1204                           
  1205                           ;main.c: 159:           Lcd_Out2(1, 0, s);
  1206  04B4  01F3               	clrf	Lcd_Out2@x
  1207  04B5  3028               	movlw	(low (_s| 0))& (0+255)
  1208  04B6  0140               	movlb	0	; select bank0
  1209  04B7  00D0               	movwf	??_saludo
  1210  04B8  0850               	movf	??_saludo,w
  1211  04B9  00F4               	movwf	Lcd_Out2@buffer
  1212  04BA  3001               	movlw	1
  1213  04BB  318E  2653  3184   	fcall	_Lcd_Out2
  1214  04BE                     l1568:
  1215                           
  1216                           ;main.c: 160:           sprintf(s, "MENU");
  1217  04BE  30D5               	movlw	low (STR_6| (0+32768))
  1218  04BF  0140               	movlb	0	; select bank0
  1219  04C0  00C6               	movwf	sprintf@fmt
  1220  04C1  3088               	movlw	high (STR_6| (0+32768))
  1221  04C2  00C7               	movwf	sprintf@fmt+1
  1222  04C3  3028               	movlw	(low (_s| 0))& (0+255)
  1223  04C4  318E  2608  3184   	fcall	_sprintf
  1224  04C7                     l1570:
  1225                           
  1226                           ;main.c: 161:           Lcd_Out2(2, 8, s);
  1227  04C7  3008               	movlw	8
  1228  04C8  0140               	movlb	0	; select bank0
  1229  04C9  00D0               	movwf	??_saludo
  1230  04CA  0850               	movf	??_saludo,w
  1231  04CB  00F3               	movwf	Lcd_Out2@x
  1232  04CC  3028               	movlw	(low (_s| 0))& (0+255)
  1233  04CD  00D1               	movwf	??_saludo+1
  1234  04CE  0851               	movf	??_saludo+1,w
  1235  04CF  00F4               	movwf	Lcd_Out2@buffer
  1236  04D0  3002               	movlw	2
  1237  04D1  318E  2653  3184   	fcall	_Lcd_Out2
  1238  04D4                     l1572:
  1239                           
  1240                           ;main.c: 162:           sprintf(s, "COCTELES");
  1241  04D4  30C4               	movlw	low (STR_3| (0+32768))
  1242  04D5  0140               	movlb	0	; select bank0
  1243  04D6  00C6               	movwf	sprintf@fmt
  1244  04D7  3088               	movlw	high (STR_3| (0+32768))
  1245  04D8  00C7               	movwf	sprintf@fmt+1
  1246  04D9  3028               	movlw	(low (_s| 0))& (0+255)
  1247  04DA  318E  2608  3184   	fcall	_sprintf
  1248  04DD                     l1574:
  1249                           
  1250                           ;main.c: 163:           Lcd_Out2(3, 6, s);
  1251  04DD  3006               	movlw	6
  1252  04DE  0140               	movlb	0	; select bank0
  1253  04DF  00D0               	movwf	??_saludo
  1254  04E0  0850               	movf	??_saludo,w
  1255  04E1  00F3               	movwf	Lcd_Out2@x
  1256  04E2  3028               	movlw	(low (_s| 0))& (0+255)
  1257  04E3  00D1               	movwf	??_saludo+1
  1258  04E4  0851               	movf	??_saludo+1,w
  1259  04E5  00F4               	movwf	Lcd_Out2@buffer
  1260  04E6  3003               	movlw	3
  1261  04E7  318E  2653  3184   	fcall	_Lcd_Out2
  1262  04EA                     l1576:
  1263                           
  1264                           ;main.c: 164:           sprintf(s, "====================");
  1265  04EA  3000               	movlw	low (STR_1| (0+32768))
  1266  04EB  0140               	movlb	0	; select bank0
  1267  04EC  00C6               	movwf	sprintf@fmt
  1268  04ED  3088               	movlw	high (STR_1| (0+32768))
  1269  04EE  00C7               	movwf	sprintf@fmt+1
  1270  04EF  3028               	movlw	(low (_s| 0))& (0+255)
  1271  04F0  318E  2608  3184   	fcall	_sprintf
  1272  04F3                     l1578:
  1273                           
  1274                           ;main.c: 165:           Lcd_Out2(4, 0, s);
  1275  04F3  01F3               	clrf	Lcd_Out2@x
  1276  04F4  3028               	movlw	(low (_s| 0))& (0+255)
  1277  04F5  0140               	movlb	0	; select bank0
  1278  04F6  00D0               	movwf	??_saludo
  1279  04F7  0850               	movf	??_saludo,w
  1280  04F8  00F4               	movwf	Lcd_Out2@buffer
  1281  04F9  3004               	movlw	4
  1282  04FA  318E  2653  3184   	fcall	_Lcd_Out2
  1283                           
  1284                           ;main.c: 166:            _delay((unsigned long)((3000)*(1000000/4000.0)));
  1285  04FD  3004               	movlw	4
  1286  04FE  0140               	movlb	0	; select bank0
  1287  04FF  00D1               	movwf	??_saludo+1
  1288  0500  30CF               	movlw	207
  1289  0501  00D0               	movwf	??_saludo
  1290  0502  3001               	movlw	1
  1291  0503                     u447:
  1292  0503  0B89               	decfsz	9,f
  1293  0504  2D03               	goto	u447
  1294  0505  0BD0               	decfsz	??_saludo,f
  1295  0506  2D03               	goto	u447
  1296  0507  0BD1               	decfsz	??_saludo+1,f
  1297  0508  2D03               	goto	u447
  1298  0509  3200               	nop2
  1299  050A                     l102:
  1300  050A  0008               	return
  1301  050B                     __end_of_saludo:
  1302                           
  1303                           	psect	text2
  1304  0F3E                     __ptext2:	
  1305 ;; *************** function _menu *****************
  1306 ;; Defined at:
  1307 ;;		line 186 in file "main.c"
  1308 ;; Parameters:    Size  Location     Type
  1309 ;;		None
  1310 ;; Auto vars:     Size  Location     Type
  1311 ;;		None
  1312 ;; Return value:  Size  Location     Type
  1313 ;;                  1    wreg      void 
  1314 ;; Registers used:
  1315 ;;		wreg, fsr0l, fsr0h, fsr1l, fsr1h, status,2, status,0, pclath, cstack
  1316 ;; Tracked objects:
  1317 ;;		On entry : 0/0
  1318 ;;		On exit  : 0/0
  1319 ;;		Unchanged: 0/0
  1320 ;; Data sizes:     COMMON   BANK0   BANK1   BANK2   BANK3   BANK4   BANK5   BANK6
  1321 ;;      Params:         0       0       0       0       0       0       0       0
  1322 ;;      Locals:         0       0       0       0       0       0       0       0
  1323 ;;      Temps:          0       2       0       0       0       0       0       0
  1324 ;;      Totals:         0       2       0       0       0       0       0       0
  1325 ;;Total ram usage:        2 bytes
  1326 ;; Hardware stack levels used: 1
  1327 ;; Hardware stack levels required when called: 5
  1328 ;; This function calls:
  1329 ;;		_Lcd_Cmd
  1330 ;;		_Lcd_Out2
  1331 ;;		_sprintf
  1332 ;; This function is called by:
  1333 ;;		_main
  1334 ;; This function uses a non-reentrant model
  1335 ;;
  1336                           
  1337                           
  1338                           ;psect for function _menu
  1339  0F3E                     _menu:
  1340  0F3E                     l1600:	
  1341                           ;incstack = 0
  1342                           ; Regs used in _menu: [wreg-fsr1h+status,2+status,0+pclath+cstack]
  1343                           
  1344                           
  1345                           ;main.c: 188:      Lcd_Cmd(1);
  1346  0F3E  3001               	movlw	1
  1347  0F3F  3183  231F  318F   	fcall	_Lcd_Cmd
  1348  0F42                     l1602:
  1349                           
  1350                           ;main.c: 189:           sprintf(s, "<1> Vodka y Ginger");
  1351  0F42  3029               	movlw	low (STR_13| (0+32768))
  1352  0F43  0140               	movlb	0	; select bank0
  1353  0F44  00C6               	movwf	sprintf@fmt
  1354  0F45  3088               	movlw	high (STR_13| (0+32768))
  1355  0F46  00C7               	movwf	sprintf@fmt+1
  1356  0F47  3028               	movlw	(low (_s| 0))& (0+255)
  1357  0F48  318E  2608  318F   	fcall	_sprintf
  1358  0F4B                     l1604:
  1359                           
  1360                           ;main.c: 190:           Lcd_Out2(1, 0, s);
  1361  0F4B  01F3               	clrf	Lcd_Out2@x
  1362  0F4C  3028               	movlw	(low (_s| 0))& (0+255)
  1363  0F4D  0140               	movlb	0	; select bank0
  1364  0F4E  00D0               	movwf	??_menu
  1365  0F4F  0850               	movf	??_menu,w
  1366  0F50  00F4               	movwf	Lcd_Out2@buffer
  1367  0F51  3001               	movlw	1
  1368  0F52  318E  2653  318F   	fcall	_Lcd_Out2
  1369  0F55                     l1606:
  1370                           
  1371                           ;main.c: 191:           sprintf(s, "<2> Vodka y Naranja");
  1372  0F55  3015               	movlw	low (STR_14| (0+32768))
  1373  0F56  0140               	movlb	0	; select bank0
  1374  0F57  00C6               	movwf	sprintf@fmt
  1375  0F58  3088               	movlw	high (STR_14| (0+32768))
  1376  0F59  00C7               	movwf	sprintf@fmt+1
  1377  0F5A  3028               	movlw	(low (_s| 0))& (0+255)
  1378  0F5B  318E  2608  318F   	fcall	_sprintf
  1379  0F5E                     l1608:
  1380                           
  1381                           ;main.c: 192:           Lcd_Out2(2, 0, s);
  1382  0F5E  01F3               	clrf	Lcd_Out2@x
  1383  0F5F  3028               	movlw	(low (_s| 0))& (0+255)
  1384  0F60  0140               	movlb	0	; select bank0
  1385  0F61  00D0               	movwf	??_menu
  1386  0F62  0850               	movf	??_menu,w
  1387  0F63  00F4               	movwf	Lcd_Out2@buffer
  1388  0F64  3002               	movlw	2
  1389  0F65  318E  2653  318F   	fcall	_Lcd_Out2
  1390  0F68                     l1610:
  1391                           
  1392                           ;main.c: 193:           sprintf(s, "<3> Ron y Ginger");
  1393  0F68  305F               	movlw	low (STR_15| (0+32768))
  1394  0F69  0140               	movlb	0	; select bank0
  1395  0F6A  00C6               	movwf	sprintf@fmt
  1396  0F6B  3088               	movlw	high (STR_15| (0+32768))
  1397  0F6C  00C7               	movwf	sprintf@fmt+1
  1398  0F6D  3028               	movlw	(low (_s| 0))& (0+255)
  1399  0F6E  318E  2608  318F   	fcall	_sprintf
  1400  0F71                     l1612:
  1401                           
  1402                           ;main.c: 194:           Lcd_Out2(3, 0, s);
  1403  0F71  01F3               	clrf	Lcd_Out2@x
  1404  0F72  3028               	movlw	(low (_s| 0))& (0+255)
  1405  0F73  0140               	movlb	0	; select bank0
  1406  0F74  00D0               	movwf	??_menu
  1407  0F75  0850               	movf	??_menu,w
  1408  0F76  00F4               	movwf	Lcd_Out2@buffer
  1409  0F77  3003               	movlw	3
  1410  0F78  318E  2653  318F   	fcall	_Lcd_Out2
  1411  0F7B                     l1614:
  1412                           
  1413                           ;main.c: 195:           sprintf(s, "<4> Ron y Naranja");
  1414  0F7B  303C               	movlw	low (STR_16| (0+32768))
  1415  0F7C  0140               	movlb	0	; select bank0
  1416  0F7D  00C6               	movwf	sprintf@fmt
  1417  0F7E  3088               	movlw	high (STR_16| (0+32768))
  1418  0F7F  00C7               	movwf	sprintf@fmt+1
  1419  0F80  3028               	movlw	(low (_s| 0))& (0+255)
  1420  0F81  318E  2608  318F   	fcall	_sprintf
  1421  0F84                     l1616:
  1422                           
  1423                           ;main.c: 196:           Lcd_Out2(4, 0, s);
  1424  0F84  01F3               	clrf	Lcd_Out2@x
  1425  0F85  3028               	movlw	(low (_s| 0))& (0+255)
  1426  0F86  0140               	movlb	0	; select bank0
  1427  0F87  00D0               	movwf	??_menu
  1428  0F88  0850               	movf	??_menu,w
  1429  0F89  00F4               	movwf	Lcd_Out2@buffer
  1430  0F8A  3004               	movlw	4
  1431  0F8B  318E  2653  318F   	fcall	_Lcd_Out2
  1432  0F8E                     l1618:
  1433                           
  1434                           ;main.c: 197:           _delay((unsigned long)((5000)*(1000000/4000.0)));
  1435  0F8E  3007               	movlw	7
  1436  0F8F  0140               	movlb	0	; select bank0
  1437  0F90  00D1               	movwf	??_menu+1
  1438  0F91  3058               	movlw	88
  1439  0F92  00D0               	movwf	??_menu
  1440  0F93  3059               	movlw	89
  1441  0F94                     u457:
  1442  0F94  0B89               	decfsz	9,f
  1443  0F95  2F94               	goto	u457
  1444  0F96  0BD0               	decfsz	??_menu,f
  1445  0F97  2F94               	goto	u457
  1446  0F98  0BD1               	decfsz	??_menu+1,f
  1447  0F99  2F94               	goto	u457
  1448  0F9A  3200               	nop2
  1449  0F9B                     l108:
  1450  0F9B  0008               	return
  1451  0F9C                     __end_of_menu:
  1452                           
  1453                           	psect	text3
  1454  0F9C                     __ptext3:	
  1455 ;; *************** function _despedida *****************
  1456 ;; Defined at:
  1457 ;;		line 170 in file "main.c"
  1458 ;; Parameters:    Size  Location     Type
  1459 ;;		None
  1460 ;; Auto vars:     Size  Location     Type
  1461 ;;		None
  1462 ;; Return value:  Size  Location     Type
  1463 ;;                  1    wreg      void 
  1464 ;; Registers used:
  1465 ;;		wreg, fsr0l, fsr0h, fsr1l, fsr1h, status,2, status,0, pclath, cstack
  1466 ;; Tracked objects:
  1467 ;;		On entry : 0/0
  1468 ;;		On exit  : 0/0
  1469 ;;		Unchanged: 0/0
  1470 ;; Data sizes:     COMMON   BANK0   BANK1   BANK2   BANK3   BANK4   BANK5   BANK6
  1471 ;;      Params:         0       0       0       0       0       0       0       0
  1472 ;;      Locals:         0       0       0       0       0       0       0       0
  1473 ;;      Temps:          0       2       0       0       0       0       0       0
  1474 ;;      Totals:         0       2       0       0       0       0       0       0
  1475 ;;Total ram usage:        2 bytes
  1476 ;; Hardware stack levels used: 1
  1477 ;; Hardware stack levels required when called: 5
  1478 ;; This function calls:
  1479 ;;		_Lcd_Cmd
  1480 ;;		_Lcd_Out2
  1481 ;;		_sprintf
  1482 ;; This function is called by:
  1483 ;;		_main
  1484 ;; This function uses a non-reentrant model
  1485 ;;
  1486                           
  1487                           
  1488                           ;psect for function _despedida
  1489  0F9C                     _despedida:
  1490  0F9C                     l1580:	
  1491                           ;incstack = 0
  1492                           ; Regs used in _despedida: [wreg-fsr1h+status,2+status,0+pclath+cstack]
  1493                           
  1494                           
  1495                           ;main.c: 172:     Lcd_Cmd(1);
  1496  0F9C  3001               	movlw	1
  1497  0F9D  3183  231F  318F   	fcall	_Lcd_Cmd
  1498  0FA0                     l1582:
  1499                           
  1500                           ;main.c: 173:     sprintf(s, "====================");
  1501  0FA0  3000               	movlw	low (STR_1| (0+32768))
  1502  0FA1  0140               	movlb	0	; select bank0
  1503  0FA2  00C6               	movwf	sprintf@fmt
  1504  0FA3  3088               	movlw	high (STR_1| (0+32768))
  1505  0FA4  00C7               	movwf	sprintf@fmt+1
  1506  0FA5  3028               	movlw	(low (_s| 0))& (0+255)
  1507  0FA6  318E  2608  318F   	fcall	_sprintf
  1508  0FA9                     l1584:
  1509                           
  1510                           ;main.c: 174:     Lcd_Out2(1, 0, s);
  1511  0FA9  01F3               	clrf	Lcd_Out2@x
  1512  0FAA  3028               	movlw	(low (_s| 0))& (0+255)
  1513  0FAB  0140               	movlb	0	; select bank0
  1514  0FAC  00D0               	movwf	??_despedida
  1515  0FAD  0850               	movf	??_despedida,w
  1516  0FAE  00F4               	movwf	Lcd_Out2@buffer
  1517  0FAF  3001               	movlw	1
  1518  0FB0  318E  2653  318F   	fcall	_Lcd_Out2
  1519  0FB3                     l1586:
  1520                           
  1521                           ;main.c: 175:     sprintf(s, "GRACIAS");
  1522  0FB3  30CD               	movlw	low (STR_10| (0+32768))
  1523  0FB4  0140               	movlb	0	; select bank0
  1524  0FB5  00C6               	movwf	sprintf@fmt
  1525  0FB6  3088               	movlw	high (STR_10| (0+32768))
  1526  0FB7  00C7               	movwf	sprintf@fmt+1
  1527  0FB8  3028               	movlw	(low (_s| 0))& (0+255)
  1528  0FB9  318E  2608  318F   	fcall	_sprintf
  1529  0FBC                     l1588:
  1530                           
  1531                           ;main.c: 176:     Lcd_Out2(2, 7, s);
  1532  0FBC  3007               	movlw	7
  1533  0FBD  0140               	movlb	0	; select bank0
  1534  0FBE  00D0               	movwf	??_despedida
  1535  0FBF  0850               	movf	??_despedida,w
  1536  0FC0  00F3               	movwf	Lcd_Out2@x
  1537  0FC1  3028               	movlw	(low (_s| 0))& (0+255)
  1538  0FC2  00D1               	movwf	??_despedida+1
  1539  0FC3  0851               	movf	??_despedida+1,w
  1540  0FC4  00F4               	movwf	Lcd_Out2@buffer
  1541  0FC5  3002               	movlw	2
  1542  0FC6  318E  2653  318F   	fcall	_Lcd_Out2
  1543  0FC9                     l1590:
  1544                           
  1545                           ;main.c: 177:     sprintf(s, "QUE LO DISFRUTES");
  1546  0FC9  304E               	movlw	low (STR_11| (0+32768))
  1547  0FCA  0140               	movlb	0	; select bank0
  1548  0FCB  00C6               	movwf	sprintf@fmt
  1549  0FCC  3088               	movlw	high (STR_11| (0+32768))
  1550  0FCD  00C7               	movwf	sprintf@fmt+1
  1551  0FCE  3028               	movlw	(low (_s| 0))& (0+255)
  1552  0FCF  318E  2608  318F   	fcall	_sprintf
  1553  0FD2                     l1592:
  1554                           
  1555                           ;main.c: 178:     Lcd_Out2(3, 2, s);
  1556  0FD2  3002               	movlw	2
  1557  0FD3  0140               	movlb	0	; select bank0
  1558  0FD4  00D0               	movwf	??_despedida
  1559  0FD5  0850               	movf	??_despedida,w
  1560  0FD6  00F3               	movwf	Lcd_Out2@x
  1561  0FD7  3028               	movlw	(low (_s| 0))& (0+255)
  1562  0FD8  00D1               	movwf	??_despedida+1
  1563  0FD9  0851               	movf	??_despedida+1,w
  1564  0FDA  00F4               	movwf	Lcd_Out2@buffer
  1565  0FDB  3003               	movlw	3
  1566  0FDC  318E  2653  318F   	fcall	_Lcd_Out2
  1567  0FDF                     l1594:
  1568                           
  1569                           ;main.c: 179:     sprintf(s, "====================");
  1570  0FDF  3000               	movlw	low (STR_1| (0+32768))
  1571  0FE0  0140               	movlb	0	; select bank0
  1572  0FE1  00C6               	movwf	sprintf@fmt
  1573  0FE2  3088               	movlw	high (STR_1| (0+32768))
  1574  0FE3  00C7               	movwf	sprintf@fmt+1
  1575  0FE4  3028               	movlw	(low (_s| 0))& (0+255)
  1576  0FE5  318E  2608  318F   	fcall	_sprintf
  1577  0FE8                     l1596:
  1578                           
  1579                           ;main.c: 180:     Lcd_Out2(4, 0, s);
  1580  0FE8  01F3               	clrf	Lcd_Out2@x
  1581  0FE9  3028               	movlw	(low (_s| 0))& (0+255)
  1582  0FEA  0140               	movlb	0	; select bank0
  1583  0FEB  00D0               	movwf	??_despedida
  1584  0FEC  0850               	movf	??_despedida,w
  1585  0FED  00F4               	movwf	Lcd_Out2@buffer
  1586  0FEE  3004               	movlw	4
  1587  0FEF  318E  2653  318F   	fcall	_Lcd_Out2
  1588  0FF2                     l1598:
  1589                           
  1590                           ;main.c: 181:     _delay((unsigned long)((2000)*(1000000/4000.0)));
  1591  0FF2  3003               	movlw	3
  1592  0FF3  0140               	movlb	0	; select bank0
  1593  0FF4  00D1               	movwf	??_despedida+1
  1594  0FF5  308A               	movlw	138
  1595  0FF6  00D0               	movwf	??_despedida
  1596  0FF7  3055               	movlw	85
  1597  0FF8                     u467:
  1598  0FF8  0B89               	decfsz	9,f
  1599  0FF9  2FF8               	goto	u467
  1600  0FFA  0BD0               	decfsz	??_despedida,f
  1601  0FFB  2FF8               	goto	u467
  1602  0FFC  0BD1               	decfsz	??_despedida+1,f
  1603  0FFD  2FF8               	goto	u467
  1604  0FFE  3200               	nop2
  1605  0FFF                     l105:
  1606  0FFF  0008               	return
  1607  1000                     __end_of_despedida:
  1608                           
  1609                           	psect	text4
  1610  0214                     __ptext4:	
  1611 ;; *************** function _coctel_4 *****************
  1612 ;; Defined at:
  1613 ;;		line 547 in file "main.c"
  1614 ;; Parameters:    Size  Location     Type
  1615 ;;		None
  1616 ;; Auto vars:     Size  Location     Type
  1617 ;;		None
  1618 ;; Return value:  Size  Location     Type
  1619 ;;                  1    wreg      void 
  1620 ;; Registers used:
  1621 ;;		wreg, fsr0l, fsr0h, fsr1l, fsr1h, status,2, status,0, pclath, cstack
  1622 ;; Tracked objects:
  1623 ;;		On entry : 0/0
  1624 ;;		On exit  : 0/0
  1625 ;;		Unchanged: 0/0
  1626 ;; Data sizes:     COMMON   BANK0   BANK1   BANK2   BANK3   BANK4   BANK5   BANK6
  1627 ;;      Params:         0       0       0       0       0       0       0       0
  1628 ;;      Locals:         0       0       0       0       0       0       0       0
  1629 ;;      Temps:          0       2       0       0       0       0       0       0
  1630 ;;      Totals:         0       2       0       0       0       0       0       0
  1631 ;;Total ram usage:        2 bytes
  1632 ;; Hardware stack levels used: 1
  1633 ;; Hardware stack levels required when called: 5
  1634 ;; This function calls:
  1635 ;;		_Lcd_Cmd
  1636 ;;		_Lcd_Out2
  1637 ;;		_secuencias_leds3
  1638 ;;		_secuencias_leds4
  1639 ;;		_sprintf
  1640 ;; This function is called by:
  1641 ;;		_main
  1642 ;; This function uses a non-reentrant model
  1643 ;;
  1644                           
  1645                           
  1646                           ;psect for function _coctel_4
  1647  0214                     _coctel_4:
  1648  0214                     l1710:	
  1649                           ;incstack = 0
  1650                           ; Regs used in _coctel_4: [wreg-fsr1h+status,2+status,0+pclath+cstack]
  1651                           
  1652                           
  1653                           ;main.c: 549:     Lcd_Cmd(1);
  1654  0214  3001               	movlw	1
  1655  0215  3183  231F  3182   	fcall	_Lcd_Cmd
  1656  0218                     l1712:
  1657                           
  1658                           ;main.c: 550:     sprintf(s, "====================");
  1659  0218  3000               	movlw	low (STR_1| (0+32768))
  1660  0219  0140               	movlb	0	; select bank0
  1661  021A  00C6               	movwf	sprintf@fmt
  1662  021B  3088               	movlw	high (STR_1| (0+32768))
  1663  021C  00C7               	movwf	sprintf@fmt+1
  1664  021D  3028               	movlw	(low (_s| 0))& (0+255)
  1665  021E  318E  2608  3182   	fcall	_sprintf
  1666  0221                     l1714:
  1667                           
  1668                           ;main.c: 551:     Lcd_Out2(1, 0, s);
  1669  0221  01F3               	clrf	Lcd_Out2@x
  1670  0222  3028               	movlw	(low (_s| 0))& (0+255)
  1671  0223  0140               	movlb	0	; select bank0
  1672  0224  00D0               	movwf	??_coctel_4
  1673  0225  0850               	movf	??_coctel_4,w
  1674  0226  00F4               	movwf	Lcd_Out2@buffer
  1675  0227  3001               	movlw	1
  1676  0228  318E  2653  3182   	fcall	_Lcd_Out2
  1677  022B                     l1716:
  1678                           
  1679                           ;main.c: 552:     sprintf(s, "PREPARANDO");
  1680  022B  30B9               	movlw	low (STR_18| (0+32768))
  1681  022C  0140               	movlb	0	; select bank0
  1682  022D  00C6               	movwf	sprintf@fmt
  1683  022E  3088               	movlw	high (STR_18| (0+32768))
  1684  022F  00C7               	movwf	sprintf@fmt+1
  1685  0230  3028               	movlw	(low (_s| 0))& (0+255)
  1686  0231  318E  2608  3182   	fcall	_sprintf
  1687  0234                     l1718:
  1688                           
  1689                           ;main.c: 553:     Lcd_Out2(2, 5, s);
  1690  0234  3005               	movlw	5
  1691  0235  0140               	movlb	0	; select bank0
  1692  0236  00D0               	movwf	??_coctel_4
  1693  0237  0850               	movf	??_coctel_4,w
  1694  0238  00F3               	movwf	Lcd_Out2@x
  1695  0239  3028               	movlw	(low (_s| 0))& (0+255)
  1696  023A  00D1               	movwf	??_coctel_4+1
  1697  023B  0851               	movf	??_coctel_4+1,w
  1698  023C  00F4               	movwf	Lcd_Out2@buffer
  1699  023D  3002               	movlw	2
  1700  023E  318E  2653  3182   	fcall	_Lcd_Out2
  1701  0241                     l1720:
  1702                           
  1703                           ;main.c: 554:     sprintf(s, "RON Y NARANJA");
  1704  0241  309E               	movlw	low (STR_31| (0+32768))
  1705  0242  0140               	movlb	0	; select bank0
  1706  0243  00C6               	movwf	sprintf@fmt
  1707  0244  3088               	movlw	high (STR_31| (0+32768))
  1708  0245  00C7               	movwf	sprintf@fmt+1
  1709  0246  3028               	movlw	(low (_s| 0))& (0+255)
  1710  0247  318E  2608  3182   	fcall	_sprintf
  1711  024A                     l1722:
  1712                           
  1713                           ;main.c: 555:     Lcd_Out2(3, 4, s);
  1714  024A  3004               	movlw	4
  1715  024B  0140               	movlb	0	; select bank0
  1716  024C  00D0               	movwf	??_coctel_4
  1717  024D  0850               	movf	??_coctel_4,w
  1718  024E  00F3               	movwf	Lcd_Out2@x
  1719  024F  3028               	movlw	(low (_s| 0))& (0+255)
  1720  0250  00D1               	movwf	??_coctel_4+1
  1721  0251  0851               	movf	??_coctel_4+1,w
  1722  0252  00F4               	movwf	Lcd_Out2@buffer
  1723  0253  3003               	movlw	3
  1724  0254  318E  2653  3182   	fcall	_Lcd_Out2
  1725  0257                     l1724:
  1726                           
  1727                           ;main.c: 556:     sprintf(s, "====================");
  1728  0257  3000               	movlw	low (STR_1| (0+32768))
  1729  0258  0140               	movlb	0	; select bank0
  1730  0259  00C6               	movwf	sprintf@fmt
  1731  025A  3088               	movlw	high (STR_1| (0+32768))
  1732  025B  00C7               	movwf	sprintf@fmt+1
  1733  025C  3028               	movlw	(low (_s| 0))& (0+255)
  1734  025D  318E  2608  3182   	fcall	_sprintf
  1735  0260                     l1726:
  1736                           
  1737                           ;main.c: 557:     Lcd_Out2(4, 0, s);
  1738  0260  01F3               	clrf	Lcd_Out2@x
  1739  0261  3028               	movlw	(low (_s| 0))& (0+255)
  1740  0262  0140               	movlb	0	; select bank0
  1741  0263  00D0               	movwf	??_coctel_4
  1742  0264  0850               	movf	??_coctel_4,w
  1743  0265  00F4               	movwf	Lcd_Out2@buffer
  1744  0266  3004               	movlw	4
  1745  0267  318E  2653  3182   	fcall	_Lcd_Out2
  1746  026A                     l1728:
  1747                           
  1748                           ;main.c: 559:            LATAbits.LATA1 = 1;;
  1749  026A  0140               	movlb	0	; select bank0
  1750  026B  1498               	bsf	24,1	;volatile
  1751                           
  1752                           ;main.c: 560:            secuencias_leds4();
  1753  026C  3185  250B  3182   	fcall	_secuencias_leds4
  1754  026F                     l1730:
  1755                           
  1756                           ;main.c: 561:            LATAbits.LATA1 = 0;;
  1757  026F  0140               	movlb	0	; select bank0
  1758  0270  1098               	bcf	24,1	;volatile
  1759  0271                     l1732:
  1760                           
  1761                           ;main.c: 562:            _delay((unsigned long)((1000)*(1000000/4000.0)));
  1762  0271  3002               	movlw	2
  1763  0272  0140               	movlb	0	; select bank0
  1764  0273  00D1               	movwf	??_coctel_4+1
  1765  0274  3045               	movlw	69
  1766  0275  00D0               	movwf	??_coctel_4
  1767  0276  30A9               	movlw	169
  1768  0277                     u477:
  1769  0277  0B89               	decfsz	9,f
  1770  0278  2A77               	goto	u477
  1771  0279  0BD0               	decfsz	??_coctel_4,f
  1772  027A  2A77               	goto	u477
  1773  027B  0BD1               	decfsz	??_coctel_4+1,f
  1774  027C  2A77               	goto	u477
  1775  027D  3200               	nop2
  1776  027E                     l1734:
  1777                           
  1778                           ;main.c: 563:            LATBbits.LATB5 = 1;;
  1779  027E  0140               	movlb	0	; select bank0
  1780  027F  1699               	bsf	25,5	;volatile
  1781  0280                     l1736:
  1782                           
  1783                           ;main.c: 564:            secuencias_leds3();
  1784  0280  3186  26E1  3182   	fcall	_secuencias_leds3
  1785  0283                     l1738:
  1786                           
  1787                           ;main.c: 565:            LATBbits.LATB5 = 0;;
  1788  0283  0140               	movlb	0	; select bank0
  1789  0284  1299               	bcf	25,5	;volatile
  1790                           
  1791                           ;main.c: 566:            _delay((unsigned long)((1000)*(1000000/4000.0)));
  1792  0285  3002               	movlw	2
  1793  0286  0140               	movlb	0	; select bank0
  1794  0287  00D1               	movwf	??_coctel_4+1
  1795  0288  3045               	movlw	69
  1796  0289  00D0               	movwf	??_coctel_4
  1797  028A  30A9               	movlw	169
  1798  028B                     u487:
  1799  028B  0B89               	decfsz	9,f
  1800  028C  2A8B               	goto	u487
  1801  028D  0BD0               	decfsz	??_coctel_4,f
  1802  028E  2A8B               	goto	u487
  1803  028F  0BD1               	decfsz	??_coctel_4+1,f
  1804  0290  2A8B               	goto	u487
  1805  0291  3200               	nop2
  1806  0292                     l140:
  1807  0292  0008               	return
  1808  0293                     __end_of_coctel_4:
  1809                           
  1810                           	psect	text5
  1811  0195                     __ptext5:	
  1812 ;; *************** function _coctel_3 *****************
  1813 ;; Defined at:
  1814 ;;		line 523 in file "main.c"
  1815 ;; Parameters:    Size  Location     Type
  1816 ;;		None
  1817 ;; Auto vars:     Size  Location     Type
  1818 ;;		None
  1819 ;; Return value:  Size  Location     Type
  1820 ;;                  1    wreg      void 
  1821 ;; Registers used:
  1822 ;;		wreg, fsr0l, fsr0h, fsr1l, fsr1h, status,2, status,0, pclath, cstack
  1823 ;; Tracked objects:
  1824 ;;		On entry : 0/0
  1825 ;;		On exit  : 0/0
  1826 ;;		Unchanged: 0/0
  1827 ;; Data sizes:     COMMON   BANK0   BANK1   BANK2   BANK3   BANK4   BANK5   BANK6
  1828 ;;      Params:         0       0       0       0       0       0       0       0
  1829 ;;      Locals:         0       0       0       0       0       0       0       0
  1830 ;;      Temps:          0       2       0       0       0       0       0       0
  1831 ;;      Totals:         0       2       0       0       0       0       0       0
  1832 ;;Total ram usage:        2 bytes
  1833 ;; Hardware stack levels used: 1
  1834 ;; Hardware stack levels required when called: 5
  1835 ;; This function calls:
  1836 ;;		_Lcd_Cmd
  1837 ;;		_Lcd_Out2
  1838 ;;		_secuencias_leds3
  1839 ;;		_secuencias_leds4
  1840 ;;		_sprintf
  1841 ;; This function is called by:
  1842 ;;		_main
  1843 ;; This function uses a non-reentrant model
  1844 ;;
  1845                           
  1846                           
  1847                           ;psect for function _coctel_3
  1848  0195                     _coctel_3:
  1849  0195                     l1680:	
  1850                           ;incstack = 0
  1851                           ; Regs used in _coctel_3: [wreg-fsr1h+status,2+status,0+pclath+cstack]
  1852                           
  1853                           
  1854                           ;main.c: 525:     Lcd_Cmd(1);
  1855  0195  3001               	movlw	1
  1856  0196  3183  231F  3181   	fcall	_Lcd_Cmd
  1857  0199                     l1682:
  1858                           
  1859                           ;main.c: 526:     sprintf(s, "====================");
  1860  0199  3000               	movlw	low (STR_1| (0+32768))
  1861  019A  0140               	movlb	0	; select bank0
  1862  019B  00C6               	movwf	sprintf@fmt
  1863  019C  3088               	movlw	high (STR_1| (0+32768))
  1864  019D  00C7               	movwf	sprintf@fmt+1
  1865  019E  3028               	movlw	(low (_s| 0))& (0+255)
  1866  019F  318E  2608  3181   	fcall	_sprintf
  1867  01A2                     l1684:
  1868                           
  1869                           ;main.c: 527:     Lcd_Out2(1, 0, s);
  1870  01A2  01F3               	clrf	Lcd_Out2@x
  1871  01A3  3028               	movlw	(low (_s| 0))& (0+255)
  1872  01A4  0140               	movlb	0	; select bank0
  1873  01A5  00D0               	movwf	??_coctel_3
  1874  01A6  0850               	movf	??_coctel_3,w
  1875  01A7  00F4               	movwf	Lcd_Out2@buffer
  1876  01A8  3001               	movlw	1
  1877  01A9  318E  2653  3181   	fcall	_Lcd_Out2
  1878  01AC                     l1686:
  1879                           
  1880                           ;main.c: 528:     sprintf(s, "PREPARANDO");
  1881  01AC  30B9               	movlw	low (STR_18| (0+32768))
  1882  01AD  0140               	movlb	0	; select bank0
  1883  01AE  00C6               	movwf	sprintf@fmt
  1884  01AF  3088               	movlw	high (STR_18| (0+32768))
  1885  01B0  00C7               	movwf	sprintf@fmt+1
  1886  01B1  3028               	movlw	(low (_s| 0))& (0+255)
  1887  01B2  318E  2608  3181   	fcall	_sprintf
  1888  01B5                     l1688:
  1889                           
  1890                           ;main.c: 529:     Lcd_Out2(2, 5, s);
  1891  01B5  3005               	movlw	5
  1892  01B6  0140               	movlb	0	; select bank0
  1893  01B7  00D0               	movwf	??_coctel_3
  1894  01B8  0850               	movf	??_coctel_3,w
  1895  01B9  00F3               	movwf	Lcd_Out2@x
  1896  01BA  3028               	movlw	(low (_s| 0))& (0+255)
  1897  01BB  00D1               	movwf	??_coctel_3+1
  1898  01BC  0851               	movf	??_coctel_3+1,w
  1899  01BD  00F4               	movwf	Lcd_Out2@buffer
  1900  01BE  3002               	movlw	2
  1901  01BF  318E  2653  3181   	fcall	_Lcd_Out2
  1902  01C2                     l1690:
  1903                           
  1904                           ;main.c: 530:     sprintf(s, "RON Y GINGER");
  1905  01C2  30AC               	movlw	low (STR_27| (0+32768))
  1906  01C3  0140               	movlb	0	; select bank0
  1907  01C4  00C6               	movwf	sprintf@fmt
  1908  01C5  3088               	movlw	high (STR_27| (0+32768))
  1909  01C6  00C7               	movwf	sprintf@fmt+1
  1910  01C7  3028               	movlw	(low (_s| 0))& (0+255)
  1911  01C8  318E  2608  3181   	fcall	_sprintf
  1912  01CB                     l1692:
  1913                           
  1914                           ;main.c: 531:     Lcd_Out2(3, 4, s);
  1915  01CB  3004               	movlw	4
  1916  01CC  0140               	movlb	0	; select bank0
  1917  01CD  00D0               	movwf	??_coctel_3
  1918  01CE  0850               	movf	??_coctel_3,w
  1919  01CF  00F3               	movwf	Lcd_Out2@x
  1920  01D0  3028               	movlw	(low (_s| 0))& (0+255)
  1921  01D1  00D1               	movwf	??_coctel_3+1
  1922  01D2  0851               	movf	??_coctel_3+1,w
  1923  01D3  00F4               	movwf	Lcd_Out2@buffer
  1924  01D4  3003               	movlw	3
  1925  01D5  318E  2653  3181   	fcall	_Lcd_Out2
  1926  01D8                     l1694:
  1927                           
  1928                           ;main.c: 532:     sprintf(s, "====================");
  1929  01D8  3000               	movlw	low (STR_1| (0+32768))
  1930  01D9  0140               	movlb	0	; select bank0
  1931  01DA  00C6               	movwf	sprintf@fmt
  1932  01DB  3088               	movlw	high (STR_1| (0+32768))
  1933  01DC  00C7               	movwf	sprintf@fmt+1
  1934  01DD  3028               	movlw	(low (_s| 0))& (0+255)
  1935  01DE  318E  2608  3181   	fcall	_sprintf
  1936  01E1                     l1696:
  1937                           
  1938                           ;main.c: 533:     Lcd_Out2(4, 0, s);
  1939  01E1  01F3               	clrf	Lcd_Out2@x
  1940  01E2  3028               	movlw	(low (_s| 0))& (0+255)
  1941  01E3  0140               	movlb	0	; select bank0
  1942  01E4  00D0               	movwf	??_coctel_3
  1943  01E5  0850               	movf	??_coctel_3,w
  1944  01E6  00F4               	movwf	Lcd_Out2@buffer
  1945  01E7  3004               	movlw	4
  1946  01E8  318E  2653  3181   	fcall	_Lcd_Out2
  1947  01EB                     l1698:
  1948                           
  1949                           ;main.c: 535:            LATAbits.LATA1 = 1;;
  1950  01EB  0140               	movlb	0	; select bank0
  1951  01EC  1498               	bsf	24,1	;volatile
  1952                           
  1953                           ;main.c: 536:            secuencias_leds4();
  1954  01ED  3185  250B  3181   	fcall	_secuencias_leds4
  1955  01F0                     l1700:
  1956                           
  1957                           ;main.c: 537:            LATAbits.LATA1 = 0;;
  1958  01F0  0140               	movlb	0	; select bank0
  1959  01F1  1098               	bcf	24,1	;volatile
  1960  01F2                     l1702:
  1961                           
  1962                           ;main.c: 538:            _delay((unsigned long)((1000)*(1000000/4000.0)));
  1963  01F2  3002               	movlw	2
  1964  01F3  0140               	movlb	0	; select bank0
  1965  01F4  00D1               	movwf	??_coctel_3+1
  1966  01F5  3045               	movlw	69
  1967  01F6  00D0               	movwf	??_coctel_3
  1968  01F7  30A9               	movlw	169
  1969  01F8                     u497:
  1970  01F8  0B89               	decfsz	9,f
  1971  01F9  29F8               	goto	u497
  1972  01FA  0BD0               	decfsz	??_coctel_3,f
  1973  01FB  29F8               	goto	u497
  1974  01FC  0BD1               	decfsz	??_coctel_3+1,f
  1975  01FD  29F8               	goto	u497
  1976  01FE  3200               	nop2
  1977  01FF                     l1704:
  1978                           
  1979                           ;main.c: 539:            LATAbits.LATA5 = 1;;
  1980  01FF  0140               	movlb	0	; select bank0
  1981  0200  1698               	bsf	24,5	;volatile
  1982  0201                     l1706:
  1983                           
  1984                           ;main.c: 540:            secuencias_leds3();
  1985  0201  3186  26E1  3181   	fcall	_secuencias_leds3
  1986  0204                     l1708:
  1987                           
  1988                           ;main.c: 541:            LATAbits.LATA5 = 0;;
  1989  0204  0140               	movlb	0	; select bank0
  1990  0205  1298               	bcf	24,5	;volatile
  1991                           
  1992                           ;main.c: 542:            _delay((unsigned long)((1000)*(1000000/4000.0)));
  1993  0206  3002               	movlw	2
  1994  0207  0140               	movlb	0	; select bank0
  1995  0208  00D1               	movwf	??_coctel_3+1
  1996  0209  3045               	movlw	69
  1997  020A  00D0               	movwf	??_coctel_3
  1998  020B  30A9               	movlw	169
  1999  020C                     u507:
  2000  020C  0B89               	decfsz	9,f
  2001  020D  2A0C               	goto	u507
  2002  020E  0BD0               	decfsz	??_coctel_3,f
  2003  020F  2A0C               	goto	u507
  2004  0210  0BD1               	decfsz	??_coctel_3+1,f
  2005  0211  2A0C               	goto	u507
  2006  0212  3200               	nop2
  2007  0213                     l137:
  2008  0213  0008               	return
  2009  0214                     __end_of_coctel_3:
  2010                           
  2011                           	psect	text6
  2012  0116                     __ptext6:	
  2013 ;; *************** function _coctel_2 *****************
  2014 ;; Defined at:
  2015 ;;		line 499 in file "main.c"
  2016 ;; Parameters:    Size  Location     Type
  2017 ;;		None
  2018 ;; Auto vars:     Size  Location     Type
  2019 ;;		None
  2020 ;; Return value:  Size  Location     Type
  2021 ;;                  1    wreg      void 
  2022 ;; Registers used:
  2023 ;;		wreg, fsr0l, fsr0h, fsr1l, fsr1h, status,2, status,0, pclath, cstack
  2024 ;; Tracked objects:
  2025 ;;		On entry : 0/0
  2026 ;;		On exit  : 0/0
  2027 ;;		Unchanged: 0/0
  2028 ;; Data sizes:     COMMON   BANK0   BANK1   BANK2   BANK3   BANK4   BANK5   BANK6
  2029 ;;      Params:         0       0       0       0       0       0       0       0
  2030 ;;      Locals:         0       0       0       0       0       0       0       0
  2031 ;;      Temps:          0       2       0       0       0       0       0       0
  2032 ;;      Totals:         0       2       0       0       0       0       0       0
  2033 ;;Total ram usage:        2 bytes
  2034 ;; Hardware stack levels used: 1
  2035 ;; Hardware stack levels required when called: 5
  2036 ;; This function calls:
  2037 ;;		_Lcd_Cmd
  2038 ;;		_Lcd_Out2
  2039 ;;		_secuencias_leds
  2040 ;;		_secuencias_leds3
  2041 ;;		_sprintf
  2042 ;; This function is called by:
  2043 ;;		_main
  2044 ;; This function uses a non-reentrant model
  2045 ;;
  2046                           
  2047                           
  2048                           ;psect for function _coctel_2
  2049  0116                     _coctel_2:
  2050  0116                     l1650:	
  2051                           ;incstack = 0
  2052                           ; Regs used in _coctel_2: [wreg-fsr1h+status,2+status,0+pclath+cstack]
  2053                           
  2054                           
  2055                           ;main.c: 501:     Lcd_Cmd(1);
  2056  0116  3001               	movlw	1
  2057  0117  3183  231F  3181   	fcall	_Lcd_Cmd
  2058  011A                     l1652:
  2059                           
  2060                           ;main.c: 502:     sprintf(s, "====================");
  2061  011A  3000               	movlw	low (STR_1| (0+32768))
  2062  011B  0140               	movlb	0	; select bank0
  2063  011C  00C6               	movwf	sprintf@fmt
  2064  011D  3088               	movlw	high (STR_1| (0+32768))
  2065  011E  00C7               	movwf	sprintf@fmt+1
  2066  011F  3028               	movlw	(low (_s| 0))& (0+255)
  2067  0120  318E  2608  3181   	fcall	_sprintf
  2068  0123                     l1654:
  2069                           
  2070                           ;main.c: 503:     Lcd_Out2(1, 0, s);
  2071  0123  01F3               	clrf	Lcd_Out2@x
  2072  0124  3028               	movlw	(low (_s| 0))& (0+255)
  2073  0125  0140               	movlb	0	; select bank0
  2074  0126  00D0               	movwf	??_coctel_2
  2075  0127  0850               	movf	??_coctel_2,w
  2076  0128  00F4               	movwf	Lcd_Out2@buffer
  2077  0129  3001               	movlw	1
  2078  012A  318E  2653  3181   	fcall	_Lcd_Out2
  2079  012D                     l1656:
  2080                           
  2081                           ;main.c: 504:     sprintf(s, "PREPARANDO");
  2082  012D  30B9               	movlw	low (STR_18| (0+32768))
  2083  012E  0140               	movlb	0	; select bank0
  2084  012F  00C6               	movwf	sprintf@fmt
  2085  0130  3088               	movlw	high (STR_18| (0+32768))
  2086  0131  00C7               	movwf	sprintf@fmt+1
  2087  0132  3028               	movlw	(low (_s| 0))& (0+255)
  2088  0133  318E  2608  3181   	fcall	_sprintf
  2089  0136                     l1658:
  2090                           
  2091                           ;main.c: 505:     Lcd_Out2(2, 5, s);
  2092  0136  3005               	movlw	5
  2093  0137  0140               	movlb	0	; select bank0
  2094  0138  00D0               	movwf	??_coctel_2
  2095  0139  0850               	movf	??_coctel_2,w
  2096  013A  00F3               	movwf	Lcd_Out2@x
  2097  013B  3028               	movlw	(low (_s| 0))& (0+255)
  2098  013C  00D1               	movwf	??_coctel_2+1
  2099  013D  0851               	movf	??_coctel_2+1,w
  2100  013E  00F4               	movwf	Lcd_Out2@buffer
  2101  013F  3002               	movlw	2
  2102  0140  318E  2653  3181   	fcall	_Lcd_Out2
  2103  0143                     l1660:
  2104                           
  2105                           ;main.c: 506:     sprintf(s, "VODKA Y NARANJA");
  2106  0143  3070               	movlw	low (STR_23| (0+32768))
  2107  0144  0140               	movlb	0	; select bank0
  2108  0145  00C6               	movwf	sprintf@fmt
  2109  0146  3088               	movlw	high (STR_23| (0+32768))
  2110  0147  00C7               	movwf	sprintf@fmt+1
  2111  0148  3028               	movlw	(low (_s| 0))& (0+255)
  2112  0149  318E  2608  3181   	fcall	_sprintf
  2113  014C                     l1662:
  2114                           
  2115                           ;main.c: 507:     Lcd_Out2(3, 3, s);
  2116  014C  3003               	movlw	3
  2117  014D  0140               	movlb	0	; select bank0
  2118  014E  00D0               	movwf	??_coctel_2
  2119  014F  0850               	movf	??_coctel_2,w
  2120  0150  00F3               	movwf	Lcd_Out2@x
  2121  0151  3028               	movlw	(low (_s| 0))& (0+255)
  2122  0152  00D1               	movwf	??_coctel_2+1
  2123  0153  0851               	movf	??_coctel_2+1,w
  2124  0154  00F4               	movwf	Lcd_Out2@buffer
  2125  0155  3003               	movlw	3
  2126  0156  318E  2653  3181   	fcall	_Lcd_Out2
  2127  0159                     l1664:
  2128                           
  2129                           ;main.c: 508:     sprintf(s, "====================");
  2130  0159  3000               	movlw	low (STR_1| (0+32768))
  2131  015A  0140               	movlb	0	; select bank0
  2132  015B  00C6               	movwf	sprintf@fmt
  2133  015C  3088               	movlw	high (STR_1| (0+32768))
  2134  015D  00C7               	movwf	sprintf@fmt+1
  2135  015E  3028               	movlw	(low (_s| 0))& (0+255)
  2136  015F  318E  2608  3181   	fcall	_sprintf
  2137  0162                     l1666:
  2138                           
  2139                           ;main.c: 509:     Lcd_Out2(4, 0, s);
  2140  0162  01F3               	clrf	Lcd_Out2@x
  2141  0163  3028               	movlw	(low (_s| 0))& (0+255)
  2142  0164  0140               	movlb	0	; select bank0
  2143  0165  00D0               	movwf	??_coctel_2
  2144  0166  0850               	movf	??_coctel_2,w
  2145  0167  00F4               	movwf	Lcd_Out2@buffer
  2146  0168  3004               	movlw	4
  2147  0169  318E  2653  3181   	fcall	_Lcd_Out2
  2148  016C                     l1668:
  2149                           
  2150                           ;main.c: 511:            LATAbits.LATA4 = 1;;
  2151  016C  0140               	movlb	0	; select bank0
  2152  016D  1618               	bsf	24,4	;volatile
  2153                           
  2154                           ;main.c: 512:            secuencias_leds();
  2155  016E  3185  25E9  3181   	fcall	_secuencias_leds
  2156  0171                     l1670:
  2157                           
  2158                           ;main.c: 513:            LATAbits.LATA4 = 0;;
  2159  0171  0140               	movlb	0	; select bank0
  2160  0172  1218               	bcf	24,4	;volatile
  2161  0173                     l1672:
  2162                           
  2163                           ;main.c: 514:            _delay((unsigned long)((1000)*(1000000/4000.0)));
  2164  0173  3002               	movlw	2
  2165  0174  0140               	movlb	0	; select bank0
  2166  0175  00D1               	movwf	??_coctel_2+1
  2167  0176  3045               	movlw	69
  2168  0177  00D0               	movwf	??_coctel_2
  2169  0178  30A9               	movlw	169
  2170  0179                     u517:
  2171  0179  0B89               	decfsz	9,f
  2172  017A  2979               	goto	u517
  2173  017B  0BD0               	decfsz	??_coctel_2,f
  2174  017C  2979               	goto	u517
  2175  017D  0BD1               	decfsz	??_coctel_2+1,f
  2176  017E  2979               	goto	u517
  2177  017F  3200               	nop2
  2178  0180                     l1674:
  2179                           
  2180                           ;main.c: 515:            LATBbits.LATB5 = 1;;
  2181  0180  0140               	movlb	0	; select bank0
  2182  0181  1699               	bsf	25,5	;volatile
  2183  0182                     l1676:
  2184                           
  2185                           ;main.c: 516:            secuencias_leds3();
  2186  0182  3186  26E1  3181   	fcall	_secuencias_leds3
  2187  0185                     l1678:
  2188                           
  2189                           ;main.c: 517:            LATBbits.LATB5 = 0;;
  2190  0185  0140               	movlb	0	; select bank0
  2191  0186  1299               	bcf	25,5	;volatile
  2192                           
  2193                           ;main.c: 518:            _delay((unsigned long)((1000)*(1000000/4000.0)));
  2194  0187  3002               	movlw	2
  2195  0188  0140               	movlb	0	; select bank0
  2196  0189  00D1               	movwf	??_coctel_2+1
  2197  018A  3045               	movlw	69
  2198  018B  00D0               	movwf	??_coctel_2
  2199  018C  30A9               	movlw	169
  2200  018D                     u527:
  2201  018D  0B89               	decfsz	9,f
  2202  018E  298D               	goto	u527
  2203  018F  0BD0               	decfsz	??_coctel_2,f
  2204  0190  298D               	goto	u527
  2205  0191  0BD1               	decfsz	??_coctel_2+1,f
  2206  0192  298D               	goto	u527
  2207  0193  3200               	nop2
  2208  0194                     l134:
  2209  0194  0008               	return
  2210  0195                     __end_of_coctel_2:
  2211                           
  2212                           	psect	text7
  2213  05E9                     __ptext7:	
  2214 ;; *************** function _secuencias_leds *****************
  2215 ;; Defined at:
  2216 ;;		line 204 in file "main.c"
  2217 ;; Parameters:    Size  Location     Type
  2218 ;;		None
  2219 ;; Auto vars:     Size  Location     Type
  2220 ;;  i               2    1[COMMON] int 
  2221 ;; Return value:  Size  Location     Type
  2222 ;;                  1    wreg      void 
  2223 ;; Registers used:
  2224 ;;		wreg
  2225 ;; Tracked objects:
  2226 ;;		On entry : 0/0
  2227 ;;		On exit  : 0/0
  2228 ;;		Unchanged: 0/0
  2229 ;; Data sizes:     COMMON   BANK0   BANK1   BANK2   BANK3   BANK4   BANK5   BANK6
  2230 ;;      Params:         0       0       0       0       0       0       0       0
  2231 ;;      Locals:         2       0       0       0       0       0       0       0
  2232 ;;      Temps:          1       0       0       0       0       0       0       0
  2233 ;;      Totals:         3       0       0       0       0       0       0       0
  2234 ;;Total ram usage:        3 bytes
  2235 ;; Hardware stack levels used: 1
  2236 ;; This function calls:
  2237 ;;		Nothing
  2238 ;; This function is called by:
  2239 ;;		_coctel_2
  2240 ;; This function uses a non-reentrant model
  2241 ;;
  2242                           
  2243                           
  2244                           ;psect for function _secuencias_leds
  2245  05E9                     _secuencias_leds:
  2246  05E9                     l916:	
  2247                           ;incstack = 0
  2248                           ; Regs used in _secuencias_leds: [wreg]
  2249                           
  2250                           
  2251                           ;main.c: 206:        for(int i =1; i<3; i++ ){
  2252  05E9  3001               	movlw	1
  2253  05EA  00F1               	movwf	secuencias_leds@i
  2254  05EB  3000               	movlw	0
  2255  05EC  00F2               	movwf	secuencias_leds@i+1
  2256  05ED                     l111:
  2257                           
  2258                           ;main.c: 209:             LATAbits.LATA2 = 1;;
  2259  05ED  0140               	movlb	0	; select bank0
  2260  05EE  1518               	bsf	24,2	;volatile
  2261  05EF                     l920:
  2262                           
  2263                           ;main.c: 210:           _delay((unsigned long)((150)*(1000000/4000.0)));
  2264  05EF  3031               	movlw	49
  2265  05F0  00F0               	movwf	??_secuencias_leds
  2266  05F1  30B2               	movlw	178
  2267  05F2                     u537:
  2268  05F2  0B89               	decfsz	9,f
  2269  05F3  2DF2               	goto	u537
  2270  05F4  0BF0               	decfsz	??_secuencias_leds,f
  2271  05F5  2DF2               	goto	u537
  2272  05F6  3200               	nop2
  2273  05F7                     l922:
  2274                           
  2275                           ;main.c: 211:             LATAbits.LATA2 = 0;;
  2276  05F7  0140               	movlb	0	; select bank0
  2277  05F8  1118               	bcf	24,2	;volatile
  2278                           
  2279                           ;main.c: 212:           _delay((unsigned long)((150)*(1000000/4000.0)));
  2280  05F9  3031               	movlw	49
  2281  05FA  00F0               	movwf	??_secuencias_leds
  2282  05FB  30B2               	movlw	178
  2283  05FC                     u547:
  2284  05FC  0B89               	decfsz	9,f
  2285  05FD  2DFC               	goto	u547
  2286  05FE  0BF0               	decfsz	??_secuencias_leds,f
  2287  05FF  2DFC               	goto	u547
  2288  0600  3200               	nop2
  2289  0601                     l924:
  2290                           
  2291                           ;main.c: 213:             LATAbits.LATA2 = 1;;
  2292  0601  0140               	movlb	0	; select bank0
  2293  0602  1518               	bsf	24,2	;volatile
  2294                           
  2295                           ;main.c: 214:           _delay((unsigned long)((150)*(1000000/4000.0)));
  2296  0603  3031               	movlw	49
  2297  0604  00F0               	movwf	??_secuencias_leds
  2298  0605  30B2               	movlw	178
  2299  0606                     u557:
  2300  0606  0B89               	decfsz	9,f
  2301  0607  2E06               	goto	u557
  2302  0608  0BF0               	decfsz	??_secuencias_leds,f
  2303  0609  2E06               	goto	u557
  2304  060A  3200               	nop2
  2305  060B                     l926:
  2306                           
  2307                           ;main.c: 216:              LATBbits.LATB7 = 1;;
  2308  060B  0140               	movlb	0	; select bank0
  2309  060C  1799               	bsf	25,7	;volatile
  2310                           
  2311                           ;main.c: 217:           _delay((unsigned long)((150)*(1000000/4000.0)));
  2312  060D  3031               	movlw	49
  2313  060E  00F0               	movwf	??_secuencias_leds
  2314  060F  30B2               	movlw	178
  2315  0610                     u567:
  2316  0610  0B89               	decfsz	9,f
  2317  0611  2E10               	goto	u567
  2318  0612  0BF0               	decfsz	??_secuencias_leds,f
  2319  0613  2E10               	goto	u567
  2320  0614  3200               	nop2
  2321  0615                     l928:
  2322                           
  2323                           ;main.c: 218:              LATBbits.LATB7 = 0;;
  2324  0615  0140               	movlb	0	; select bank0
  2325  0616  1399               	bcf	25,7	;volatile
  2326                           
  2327                           ;main.c: 219:           _delay((unsigned long)((150)*(1000000/4000.0)));
  2328  0617  3031               	movlw	49
  2329  0618  00F0               	movwf	??_secuencias_leds
  2330  0619  30B2               	movlw	178
  2331  061A                     u577:
  2332  061A  0B89               	decfsz	9,f
  2333  061B  2E1A               	goto	u577
  2334  061C  0BF0               	decfsz	??_secuencias_leds,f
  2335  061D  2E1A               	goto	u577
  2336  061E  3200               	nop2
  2337  061F                     l930:
  2338                           
  2339                           ;main.c: 220:               LATBbits.LATB7 = 1;;
  2340  061F  0140               	movlb	0	; select bank0
  2341  0620  1799               	bsf	25,7	;volatile
  2342                           
  2343                           ;main.c: 221:           _delay((unsigned long)((150)*(1000000/4000.0)));
  2344  0621  3031               	movlw	49
  2345  0622  00F0               	movwf	??_secuencias_leds
  2346  0623  30B2               	movlw	178
  2347  0624                     u587:
  2348  0624  0B89               	decfsz	9,f
  2349  0625  2E24               	goto	u587
  2350  0626  0BF0               	decfsz	??_secuencias_leds,f
  2351  0627  2E24               	goto	u587
  2352  0628  3200               	nop2
  2353  0629                     l932:
  2354                           
  2355                           ;main.c: 227:              LATBbits.LATB7 = 1;;
  2356  0629  0140               	movlb	0	; select bank0
  2357  062A  1799               	bsf	25,7	;volatile
  2358                           
  2359                           ;main.c: 228:           _delay((unsigned long)((150)*(1000000/4000.0)));
  2360  062B  3031               	movlw	49
  2361  062C  00F0               	movwf	??_secuencias_leds
  2362  062D  30B2               	movlw	178
  2363  062E                     u597:
  2364  062E  0B89               	decfsz	9,f
  2365  062F  2E2E               	goto	u597
  2366  0630  0BF0               	decfsz	??_secuencias_leds,f
  2367  0631  2E2E               	goto	u597
  2368  0632  3200               	nop2
  2369  0633                     l934:
  2370                           
  2371                           ;main.c: 229:              LATBbits.LATB7 = 0;;
  2372  0633  0140               	movlb	0	; select bank0
  2373  0634  1399               	bcf	25,7	;volatile
  2374                           
  2375                           ;main.c: 230:           _delay((unsigned long)((150)*(1000000/4000.0)));
  2376  0635  3031               	movlw	49
  2377  0636  00F0               	movwf	??_secuencias_leds
  2378  0637  30B2               	movlw	178
  2379  0638                     u607:
  2380  0638  0B89               	decfsz	9,f
  2381  0639  2E38               	goto	u607
  2382  063A  0BF0               	decfsz	??_secuencias_leds,f
  2383  063B  2E38               	goto	u607
  2384  063C  3200               	nop2
  2385  063D                     l936:
  2386                           
  2387                           ;main.c: 231:               LATBbits.LATB7 = 1;;
  2388  063D  0140               	movlb	0	; select bank0
  2389  063E  1799               	bsf	25,7	;volatile
  2390                           
  2391                           ;main.c: 232:           _delay((unsigned long)((150)*(1000000/4000.0)));
  2392  063F  3031               	movlw	49
  2393  0640  00F0               	movwf	??_secuencias_leds
  2394  0641  30B2               	movlw	178
  2395  0642                     u617:
  2396  0642  0B89               	decfsz	9,f
  2397  0643  2E42               	goto	u617
  2398  0644  0BF0               	decfsz	??_secuencias_leds,f
  2399  0645  2E42               	goto	u617
  2400  0646  3200               	nop2
  2401  0647                     l938:
  2402                           
  2403                           ;main.c: 235:              LATAbits.LATA2 = 1;;
  2404  0647  0140               	movlb	0	; select bank0
  2405  0648  1518               	bsf	24,2	;volatile
  2406                           
  2407                           ;main.c: 236:           _delay((unsigned long)((150)*(1000000/4000.0)));
  2408  0649  3031               	movlw	49
  2409  064A  00F0               	movwf	??_secuencias_leds
  2410  064B  30B2               	movlw	178
  2411  064C                     u627:
  2412  064C  0B89               	decfsz	9,f
  2413  064D  2E4C               	goto	u627
  2414  064E  0BF0               	decfsz	??_secuencias_leds,f
  2415  064F  2E4C               	goto	u627
  2416  0650  3200               	nop2
  2417  0651                     l940:
  2418                           
  2419                           ;main.c: 237:              LATAbits.LATA2 = 0;;
  2420  0651  0140               	movlb	0	; select bank0
  2421  0652  1118               	bcf	24,2	;volatile
  2422                           
  2423                           ;main.c: 238:           _delay((unsigned long)((150)*(1000000/4000.0)));
  2424  0653  3031               	movlw	49
  2425  0654  00F0               	movwf	??_secuencias_leds
  2426  0655  30B2               	movlw	178
  2427  0656                     u637:
  2428  0656  0B89               	decfsz	9,f
  2429  0657  2E56               	goto	u637
  2430  0658  0BF0               	decfsz	??_secuencias_leds,f
  2431  0659  2E56               	goto	u637
  2432  065A  3200               	nop2
  2433  065B                     l942:
  2434                           
  2435                           ;main.c: 239:              LATAbits.LATA2 = 1;;
  2436  065B  0140               	movlb	0	; select bank0
  2437  065C  1518               	bsf	24,2	;volatile
  2438                           
  2439                           ;main.c: 240:           _delay((unsigned long)((150)*(1000000/4000.0)));
  2440  065D  3031               	movlw	49
  2441  065E  00F0               	movwf	??_secuencias_leds
  2442  065F  30B2               	movlw	178
  2443  0660                     u647:
  2444  0660  0B89               	decfsz	9,f
  2445  0661  2E60               	goto	u647
  2446  0662  0BF0               	decfsz	??_secuencias_leds,f
  2447  0663  2E60               	goto	u647
  2448  0664  3200               	nop2
  2449  0665                     l944:
  2450                           
  2451                           ;main.c: 243:              LATAbits.LATA2 = 0;;
  2452  0665  0140               	movlb	0	; select bank0
  2453  0666  1118               	bcf	24,2	;volatile
  2454  0667                     l946:
  2455                           
  2456                           ;main.c: 244:              LATBbits.LATB7 = 0;;
  2457  0667  1399               	bcf	25,7	;volatile
  2458                           
  2459                           ;main.c: 245:           _delay((unsigned long)((150)*(1000000/4000.0)));
  2460  0668  3031               	movlw	49
  2461  0669  00F0               	movwf	??_secuencias_leds
  2462  066A  30B2               	movlw	178
  2463  066B                     u657:
  2464  066B  0B89               	decfsz	9,f
  2465  066C  2E6B               	goto	u657
  2466  066D  0BF0               	decfsz	??_secuencias_leds,f
  2467  066E  2E6B               	goto	u657
  2468  066F  3200               	nop2
  2469  0670                     l948:
  2470                           
  2471                           ;main.c: 247:               LATAbits.LATA2 = 1;;
  2472  0670  0140               	movlb	0	; select bank0
  2473  0671  1518               	bsf	24,2	;volatile
  2474                           
  2475                           ;main.c: 248:           _delay((unsigned long)((150)*(1000000/4000.0)));
  2476  0672  3031               	movlw	49
  2477  0673  00F0               	movwf	??_secuencias_leds
  2478  0674  30B2               	movlw	178
  2479  0675                     u667:
  2480  0675  0B89               	decfsz	9,f
  2481  0676  2E75               	goto	u667
  2482  0677  0BF0               	decfsz	??_secuencias_leds,f
  2483  0678  2E75               	goto	u667
  2484  0679  3200               	nop2
  2485  067A                     l950:
  2486                           
  2487                           ;main.c: 249:              LATAbits.LATA2 = 0;;
  2488  067A  0140               	movlb	0	; select bank0
  2489  067B  1118               	bcf	24,2	;volatile
  2490                           
  2491                           ;main.c: 250:           _delay((unsigned long)((150)*(1000000/4000.0)));
  2492  067C  3031               	movlw	49
  2493  067D  00F0               	movwf	??_secuencias_leds
  2494  067E  30B2               	movlw	178
  2495  067F                     u677:
  2496  067F  0B89               	decfsz	9,f
  2497  0680  2E7F               	goto	u677
  2498  0681  0BF0               	decfsz	??_secuencias_leds,f
  2499  0682  2E7F               	goto	u677
  2500  0683  3200               	nop2
  2501  0684                     l952:
  2502                           
  2503                           ;main.c: 252:              LATBbits.LATB7 = 1;;
  2504  0684  0140               	movlb	0	; select bank0
  2505  0685  1799               	bsf	25,7	;volatile
  2506                           
  2507                           ;main.c: 253:           _delay((unsigned long)((150)*(1000000/4000.0)));
  2508  0686  3031               	movlw	49
  2509  0687  00F0               	movwf	??_secuencias_leds
  2510  0688  30B2               	movlw	178
  2511  0689                     u687:
  2512  0689  0B89               	decfsz	9,f
  2513  068A  2E89               	goto	u687
  2514  068B  0BF0               	decfsz	??_secuencias_leds,f
  2515  068C  2E89               	goto	u687
  2516  068D  3200               	nop2
  2517  068E                     l954:
  2518                           
  2519                           ;main.c: 254:              LATBbits.LATB7 = 0;;
  2520  068E  0140               	movlb	0	; select bank0
  2521  068F  1399               	bcf	25,7	;volatile
  2522                           
  2523                           ;main.c: 255:           _delay((unsigned long)((150)*(1000000/4000.0)));
  2524  0690  3031               	movlw	49
  2525  0691  00F0               	movwf	??_secuencias_leds
  2526  0692  30B2               	movlw	178
  2527  0693                     u697:
  2528  0693  0B89               	decfsz	9,f
  2529  0694  2E93               	goto	u697
  2530  0695  0BF0               	decfsz	??_secuencias_leds,f
  2531  0696  2E93               	goto	u697
  2532  0697  3200               	nop2
  2533  0698                     l956:
  2534                           
  2535                           ;main.c: 258:              LATAbits.LATA2 = 0;;
  2536  0698  0140               	movlb	0	; select bank0
  2537  0699  1118               	bcf	24,2	;volatile
  2538  069A                     l958:
  2539                           
  2540                           ;main.c: 259:              LATBbits.LATB7 = 0;;
  2541  069A  1399               	bcf	25,7	;volatile
  2542                           
  2543                           ;main.c: 260:           _delay((unsigned long)((200)*(1000000/4000.0)));
  2544  069B  3041               	movlw	65
  2545  069C  00F0               	movwf	??_secuencias_leds
  2546  069D  30EE               	movlw	238
  2547  069E                     u707:
  2548  069E  0B89               	decfsz	9,f
  2549  069F  2E9E               	goto	u707
  2550  06A0  0BF0               	decfsz	??_secuencias_leds,f
  2551  06A1  2E9E               	goto	u707
  2552  06A2  3200               	nop2
  2553  06A3                     l960:
  2554                           
  2555                           ;main.c: 262:              LATAbits.LATA2 = 1;;
  2556  06A3  0140               	movlb	0	; select bank0
  2557  06A4  1518               	bsf	24,2	;volatile
  2558  06A5                     l962:
  2559                           
  2560                           ;main.c: 263:              LATBbits.LATB7 = 1;;
  2561  06A5  1799               	bsf	25,7	;volatile
  2562                           
  2563                           ;main.c: 264:           _delay((unsigned long)((200)*(1000000/4000.0)));
  2564  06A6  3041               	movlw	65
  2565  06A7  00F0               	movwf	??_secuencias_leds
  2566  06A8  30EE               	movlw	238
  2567  06A9                     u717:
  2568  06A9  0B89               	decfsz	9,f
  2569  06AA  2EA9               	goto	u717
  2570  06AB  0BF0               	decfsz	??_secuencias_leds,f
  2571  06AC  2EA9               	goto	u717
  2572  06AD  3200               	nop2
  2573  06AE                     l964:
  2574                           
  2575                           ;main.c: 267:              LATAbits.LATA2 = 0;;
  2576  06AE  0140               	movlb	0	; select bank0
  2577  06AF  1118               	bcf	24,2	;volatile
  2578  06B0                     l966:
  2579                           
  2580                           ;main.c: 268:              LATBbits.LATB7 = 0;;
  2581  06B0  1399               	bcf	25,7	;volatile
  2582                           
  2583                           ;main.c: 269:           _delay((unsigned long)((200)*(1000000/4000.0)));
  2584  06B1  3041               	movlw	65
  2585  06B2  00F0               	movwf	??_secuencias_leds
  2586  06B3  30EE               	movlw	238
  2587  06B4                     u727:
  2588  06B4  0B89               	decfsz	9,f
  2589  06B5  2EB4               	goto	u727
  2590  06B6  0BF0               	decfsz	??_secuencias_leds,f
  2591  06B7  2EB4               	goto	u727
  2592  06B8  3200               	nop2
  2593  06B9                     l968:
  2594                           
  2595                           ;main.c: 271:              LATAbits.LATA2 = 1;;
  2596  06B9  0140               	movlb	0	; select bank0
  2597  06BA  1518               	bsf	24,2	;volatile
  2598  06BB                     l970:
  2599                           
  2600                           ;main.c: 272:              LATBbits.LATB7 = 1;;
  2601  06BB  1799               	bsf	25,7	;volatile
  2602                           
  2603                           ;main.c: 273:           _delay((unsigned long)((200)*(1000000/4000.0)));
  2604  06BC  3041               	movlw	65
  2605  06BD  00F0               	movwf	??_secuencias_leds
  2606  06BE  30EE               	movlw	238
  2607  06BF                     u737:
  2608  06BF  0B89               	decfsz	9,f
  2609  06C0  2EBF               	goto	u737
  2610  06C1  0BF0               	decfsz	??_secuencias_leds,f
  2611  06C2  2EBF               	goto	u737
  2612  06C3  3200               	nop2
  2613  06C4                     l972:
  2614                           
  2615                           ;main.c: 275:              LATAbits.LATA2 = 0;;
  2616  06C4  0140               	movlb	0	; select bank0
  2617  06C5  1118               	bcf	24,2	;volatile
  2618  06C6                     l974:
  2619                           
  2620                           ;main.c: 276:              LATBbits.LATB7 = 0;;
  2621  06C6  1399               	bcf	25,7	;volatile
  2622                           
  2623                           ;main.c: 277:           _delay((unsigned long)((200)*(1000000/4000.0)));
  2624  06C7  3041               	movlw	65
  2625  06C8  00F0               	movwf	??_secuencias_leds
  2626  06C9  30EE               	movlw	238
  2627  06CA                     u747:
  2628  06CA  0B89               	decfsz	9,f
  2629  06CB  2ECA               	goto	u747
  2630  06CC  0BF0               	decfsz	??_secuencias_leds,f
  2631  06CD  2ECA               	goto	u747
  2632  06CE  3200               	nop2
  2633                           
  2634                           ;main.c: 279:          }
  2635  06CF  3001               	movlw	1
  2636  06D0  07F1               	addwf	secuencias_leds@i,f
  2637  06D1  3000               	movlw	0
  2638  06D2  3DF2               	addwfc	secuencias_leds@i+1,f
  2639  06D3  0872               	movf	secuencias_leds@i+1,w
  2640  06D4  3A80               	xorlw	128
  2641  06D5  00F0               	movwf	??_secuencias_leds
  2642  06D6  3080               	movlw	128
  2643  06D7  0270               	subwf	??_secuencias_leds,w
  2644  06D8  1D03               	skipz
  2645  06D9  2EDC               	goto	u215
  2646  06DA  3003               	movlw	3
  2647  06DB  0271               	subwf	secuencias_leds@i,w
  2648  06DC                     u215:
  2649  06DC  1C03               	skipc
  2650  06DD  2EDF               	goto	u211
  2651  06DE  2EE0               	goto	u210
  2652  06DF                     u211:
  2653  06DF  2DED               	goto	l111
  2654  06E0                     u210:
  2655  06E0                     l113:
  2656  06E0  0008               	return
  2657  06E1                     __end_of_secuencias_leds:
  2658                           
  2659                           	psect	text8
  2660  0097                     __ptext8:	
  2661 ;; *************** function _coctel_1 *****************
  2662 ;; Defined at:
  2663 ;;		line 474 in file "main.c"
  2664 ;; Parameters:    Size  Location     Type
  2665 ;;		None
  2666 ;; Auto vars:     Size  Location     Type
  2667 ;;		None
  2668 ;; Return value:  Size  Location     Type
  2669 ;;                  1    wreg      void 
  2670 ;; Registers used:
  2671 ;;		wreg, fsr0l, fsr0h, fsr1l, fsr1h, status,2, status,0, pclath, cstack
  2672 ;; Tracked objects:
  2673 ;;		On entry : 0/0
  2674 ;;		On exit  : 0/0
  2675 ;;		Unchanged: 0/0
  2676 ;; Data sizes:     COMMON   BANK0   BANK1   BANK2   BANK3   BANK4   BANK5   BANK6
  2677 ;;      Params:         0       0       0       0       0       0       0       0
  2678 ;;      Locals:         0       0       0       0       0       0       0       0
  2679 ;;      Temps:          0       2       0       0       0       0       0       0
  2680 ;;      Totals:         0       2       0       0       0       0       0       0
  2681 ;;Total ram usage:        2 bytes
  2682 ;; Hardware stack levels used: 1
  2683 ;; Hardware stack levels required when called: 5
  2684 ;; This function calls:
  2685 ;;		_Lcd_Cmd
  2686 ;;		_Lcd_Out2
  2687 ;;		_secuencias_leds3
  2688 ;;		_secuencias_leds4
  2689 ;;		_sprintf
  2690 ;; This function is called by:
  2691 ;;		_main
  2692 ;; This function uses a non-reentrant model
  2693 ;;
  2694                           
  2695                           
  2696                           ;psect for function _coctel_1
  2697  0097                     _coctel_1:
  2698  0097                     l1620:	
  2699                           ;incstack = 0
  2700                           ; Regs used in _coctel_1: [wreg-fsr1h+status,2+status,0+pclath+cstack]
  2701                           
  2702                           
  2703                           ;main.c: 477:     Lcd_Cmd(1);
  2704  0097  3001               	movlw	1
  2705  0098  3183  231F  3180   	fcall	_Lcd_Cmd
  2706  009B                     l1622:
  2707                           
  2708                           ;main.c: 478:     sprintf(s, "====================");
  2709  009B  3000               	movlw	low (STR_1| (0+32768))
  2710  009C  0140               	movlb	0	; select bank0
  2711  009D  00C6               	movwf	sprintf@fmt
  2712  009E  3088               	movlw	high (STR_1| (0+32768))
  2713  009F  00C7               	movwf	sprintf@fmt+1
  2714  00A0  3028               	movlw	(low (_s| 0))& (0+255)
  2715  00A1  318E  2608  3180   	fcall	_sprintf
  2716  00A4                     l1624:
  2717                           
  2718                           ;main.c: 479:     Lcd_Out2(1, 0, s);
  2719  00A4  01F3               	clrf	Lcd_Out2@x
  2720  00A5  3028               	movlw	(low (_s| 0))& (0+255)
  2721  00A6  0140               	movlb	0	; select bank0
  2722  00A7  00D0               	movwf	??_coctel_1
  2723  00A8  0850               	movf	??_coctel_1,w
  2724  00A9  00F4               	movwf	Lcd_Out2@buffer
  2725  00AA  3001               	movlw	1
  2726  00AB  318E  2653  3180   	fcall	_Lcd_Out2
  2727  00AE                     l1626:
  2728                           
  2729                           ;main.c: 480:     sprintf(s, "PREPARANDO");
  2730  00AE  30B9               	movlw	low (STR_18| (0+32768))
  2731  00AF  0140               	movlb	0	; select bank0
  2732  00B0  00C6               	movwf	sprintf@fmt
  2733  00B1  3088               	movlw	high (STR_18| (0+32768))
  2734  00B2  00C7               	movwf	sprintf@fmt+1
  2735  00B3  3028               	movlw	(low (_s| 0))& (0+255)
  2736  00B4  318E  2608  3180   	fcall	_sprintf
  2737  00B7                     l1628:
  2738                           
  2739                           ;main.c: 481:     Lcd_Out2(2, 5, s);
  2740  00B7  3005               	movlw	5
  2741  00B8  0140               	movlb	0	; select bank0
  2742  00B9  00D0               	movwf	??_coctel_1
  2743  00BA  0850               	movf	??_coctel_1,w
  2744  00BB  00F3               	movwf	Lcd_Out2@x
  2745  00BC  3028               	movlw	(low (_s| 0))& (0+255)
  2746  00BD  00D1               	movwf	??_coctel_1+1
  2747  00BE  0851               	movf	??_coctel_1+1,w
  2748  00BF  00F4               	movwf	Lcd_Out2@buffer
  2749  00C0  3002               	movlw	2
  2750  00C1  318E  2653  3180   	fcall	_Lcd_Out2
  2751  00C4                     l1630:
  2752                           
  2753                           ;main.c: 482:     sprintf(s, "VODKA y GINGER");
  2754  00C4  308F               	movlw	low (STR_19| (0+32768))
  2755  00C5  0140               	movlb	0	; select bank0
  2756  00C6  00C6               	movwf	sprintf@fmt
  2757  00C7  3088               	movlw	high (STR_19| (0+32768))
  2758  00C8  00C7               	movwf	sprintf@fmt+1
  2759  00C9  3028               	movlw	(low (_s| 0))& (0+255)
  2760  00CA  318E  2608  3180   	fcall	_sprintf
  2761  00CD                     l1632:
  2762                           
  2763                           ;main.c: 483:     Lcd_Out2(3, 3, s);
  2764  00CD  3003               	movlw	3
  2765  00CE  0140               	movlb	0	; select bank0
  2766  00CF  00D0               	movwf	??_coctel_1
  2767  00D0  0850               	movf	??_coctel_1,w
  2768  00D1  00F3               	movwf	Lcd_Out2@x
  2769  00D2  3028               	movlw	(low (_s| 0))& (0+255)
  2770  00D3  00D1               	movwf	??_coctel_1+1
  2771  00D4  0851               	movf	??_coctel_1+1,w
  2772  00D5  00F4               	movwf	Lcd_Out2@buffer
  2773  00D6  3003               	movlw	3
  2774  00D7  318E  2653  3180   	fcall	_Lcd_Out2
  2775  00DA                     l1634:
  2776                           
  2777                           ;main.c: 484:     sprintf(s, "====================");
  2778  00DA  3000               	movlw	low (STR_1| (0+32768))
  2779  00DB  0140               	movlb	0	; select bank0
  2780  00DC  00C6               	movwf	sprintf@fmt
  2781  00DD  3088               	movlw	high (STR_1| (0+32768))
  2782  00DE  00C7               	movwf	sprintf@fmt+1
  2783  00DF  3028               	movlw	(low (_s| 0))& (0+255)
  2784  00E0  318E  2608  3180   	fcall	_sprintf
  2785  00E3                     l1636:
  2786                           
  2787                           ;main.c: 485:     Lcd_Out2(4, 0, s);
  2788  00E3  01F3               	clrf	Lcd_Out2@x
  2789  00E4  3028               	movlw	(low (_s| 0))& (0+255)
  2790  00E5  0140               	movlb	0	; select bank0
  2791  00E6  00D0               	movwf	??_coctel_1
  2792  00E7  0850               	movf	??_coctel_1,w
  2793  00E8  00F4               	movwf	Lcd_Out2@buffer
  2794  00E9  3004               	movlw	4
  2795  00EA  318E  2653  3180   	fcall	_Lcd_Out2
  2796  00ED                     l1638:
  2797                           
  2798                           ;main.c: 487:            LATAbits.LATA4 = 1;;
  2799  00ED  0140               	movlb	0	; select bank0
  2800  00EE  1618               	bsf	24,4	;volatile
  2801                           
  2802                           ;main.c: 488:            secuencias_leds3();
  2803  00EF  3186  26E1  3180   	fcall	_secuencias_leds3
  2804  00F2                     l1640:
  2805                           
  2806                           ;main.c: 489:            LATAbits.LATA4 = 0;;
  2807  00F2  0140               	movlb	0	; select bank0
  2808  00F3  1218               	bcf	24,4	;volatile
  2809  00F4                     l1642:
  2810                           
  2811                           ;main.c: 490:            _delay((unsigned long)((1000)*(1000000/4000.0)));
  2812  00F4  3002               	movlw	2
  2813  00F5  0140               	movlb	0	; select bank0
  2814  00F6  00D1               	movwf	??_coctel_1+1
  2815  00F7  3045               	movlw	69
  2816  00F8  00D0               	movwf	??_coctel_1
  2817  00F9  30A9               	movlw	169
  2818  00FA                     u757:
  2819  00FA  0B89               	decfsz	9,f
  2820  00FB  28FA               	goto	u757
  2821  00FC  0BD0               	decfsz	??_coctel_1,f
  2822  00FD  28FA               	goto	u757
  2823  00FE  0BD1               	decfsz	??_coctel_1+1,f
  2824  00FF  28FA               	goto	u757
  2825  0100  3200               	nop2
  2826  0101                     l1644:
  2827                           
  2828                           ;main.c: 491:            LATAbits.LATA5 = 1;;
  2829  0101  0140               	movlb	0	; select bank0
  2830  0102  1698               	bsf	24,5	;volatile
  2831  0103                     l1646:
  2832                           
  2833                           ;main.c: 492:            secuencias_leds4();
  2834  0103  3185  250B  3180   	fcall	_secuencias_leds4
  2835  0106                     l1648:
  2836                           
  2837                           ;main.c: 493:            LATAbits.LATA5 = 0;;
  2838  0106  0140               	movlb	0	; select bank0
  2839  0107  1298               	bcf	24,5	;volatile
  2840                           
  2841                           ;main.c: 494:            _delay((unsigned long)((1000)*(1000000/4000.0)));
  2842  0108  3002               	movlw	2
  2843  0109  0140               	movlb	0	; select bank0
  2844  010A  00D1               	movwf	??_coctel_1+1
  2845  010B  3045               	movlw	69
  2846  010C  00D0               	movwf	??_coctel_1
  2847  010D  30A9               	movlw	169
  2848  010E                     u767:
  2849  010E  0B89               	decfsz	9,f
  2850  010F  290E               	goto	u767
  2851  0110  0BD0               	decfsz	??_coctel_1,f
  2852  0111  290E               	goto	u767
  2853  0112  0BD1               	decfsz	??_coctel_1+1,f
  2854  0113  290E               	goto	u767
  2855  0114  3200               	nop2
  2856  0115                     l131:
  2857  0115  0008               	return
  2858  0116                     __end_of_coctel_1:
  2859                           
  2860                           	psect	text9
  2861  0E08                     __ptext9:	
  2862 ;; *************** function _sprintf *****************
  2863 ;; Defined at:
  2864 ;;		line 9 in file "C:\Program Files\Microchip\xc8\v2.32\pic\sources\c99\common\nf_sprintf.c"
  2865 ;; Parameters:    Size  Location     Type
  2866 ;;  s               1    wreg     PTR unsigned char 
  2867 ;;		 -> s(20), 
  2868 ;;  fmt             2   10[BANK0 ] PTR const unsigned char 
  2869 ;;		 -> STR_32(21), STR_31(14), STR_30(11), STR_29(21), 
  2870 ;;		 -> STR_28(21), STR_27(13), STR_26(11), STR_25(21), 
  2871 ;;		 -> STR_24(21), STR_23(16), STR_22(11), STR_21(21), 
  2872 ;;		 -> STR_20(21), STR_19(15), STR_18(11), STR_17(21), 
  2873 ;;		 -> STR_16(18), STR_15(17), STR_14(20), STR_13(19), 
  2874 ;;		 -> STR_12(21), STR_11(17), STR_10(8), STR_9(21), 
  2875 ;;		 -> STR_8(21), STR_7(9), STR_6(5), STR_5(21), 
  2876 ;;		 -> STR_4(21), STR_3(9), STR_2(15), STR_1(21), 
  2877 ;; Auto vars:     Size  Location     Type
  2878 ;;  s               1   19[BANK0 ] PTR unsigned char 
  2879 ;;		 -> s(20), 
  2880 ;;  f               5   14[BANK0 ] struct _IO_FILE
  2881 ;;  ret             2    0        int 
  2882 ;;  ap              1   13[BANK0 ] PTR void [1]
  2883 ;;		 -> ?_sprintf(2), 
  2884 ;; Return value:  Size  Location     Type
  2885 ;;                  2   10[BANK0 ] int 
  2886 ;; Registers used:
  2887 ;;		wreg, fsr0l, fsr0h, fsr1l, fsr1h, status,2, status,0, pclath, cstack
  2888 ;; Tracked objects:
  2889 ;;		On entry : 0/0
  2890 ;;		On exit  : 0/0
  2891 ;;		Unchanged: 0/0
  2892 ;; Data sizes:     COMMON   BANK0   BANK1   BANK2   BANK3   BANK4   BANK5   BANK6
  2893 ;;      Params:         0       2       0       0       0       0       0       0
  2894 ;;      Locals:         0       7       0       0       0       0       0       0
  2895 ;;      Temps:          0       1       0       0       0       0       0       0
  2896 ;;      Totals:         0      10       0       0       0       0       0       0
  2897 ;;Total ram usage:       10 bytes
  2898 ;; Hardware stack levels used: 1
  2899 ;; Hardware stack levels required when called: 4
  2900 ;; This function calls:
  2901 ;;		_vfprintf
  2902 ;; This function is called by:
  2903 ;;		_saludo
  2904 ;;		_despedida
  2905 ;;		_menu
  2906 ;;		_coctel_1
  2907 ;;		_coctel_2
  2908 ;;		_coctel_3
  2909 ;;		_coctel_4
  2910 ;; This function uses a non-reentrant model
  2911 ;;
  2912                           
  2913                           
  2914                           ;psect for function _sprintf
  2915  0E08                     _sprintf:
  2916                           
  2917                           ;incstack = 0
  2918                           ; Regs used in _sprintf: [wreg-fsr1h+status,2+status,0+pclath+cstack]
  2919                           ;sprintf@s stored from wreg
  2920  0E08  0140               	movlb	0	; select bank0
  2921  0E09  00CF               	movwf	sprintf@s
  2922  0E0A                     l1530:
  2923  0E0A  3048               	movlw	(low ((?_sprintf| 0+2)))& (0+255)
  2924  0E0B  00C8               	movwf	??_sprintf
  2925  0E0C  0848               	movf	??_sprintf,w
  2926  0E0D  00C9               	movwf	sprintf@ap
  2927  0E0E  084F               	movf	sprintf@s,w
  2928  0E0F  00C8               	movwf	??_sprintf
  2929  0E10  0848               	movf	??_sprintf,w
  2930  0E11  00CA               	movwf	sprintf@f
  2931  0E12                     l1532:
  2932  0E12  01CB               	clrf	sprintf@f+1
  2933  0E13  01CC               	clrf	sprintf@f+2
  2934  0E14                     l1534:
  2935  0E14  01CD               	clrf	sprintf@f+3
  2936  0E15  01CE               	clrf	sprintf@f+4
  2937  0E16                     l1536:
  2938  0E16  0847               	movf	sprintf@fmt+1,w
  2939  0E17  00FC               	movwf	vfprintf@fmt+1
  2940  0E18  0846               	movf	sprintf@fmt,w
  2941  0E19  00FB               	movwf	vfprintf@fmt
  2942  0E1A  3049               	movlw	(low (sprintf@ap| 0))& (0+255)
  2943  0E1B  00C8               	movwf	??_sprintf
  2944  0E1C  0848               	movf	??_sprintf,w
  2945  0E1D  00FD               	movwf	vfprintf@ap
  2946  0E1E  304A               	movlw	(low (sprintf@f| 0))& (0+255)
  2947  0E1F  318E  262B  318E   	fcall	_vfprintf
  2948  0E22                     l1538:
  2949  0E22  0140               	movlb	0	; select bank0
  2950  0E23  084B               	movf	sprintf@f+1,w
  2951  0E24  074F               	addwf	sprintf@s,w
  2952  0E25  00C8               	movwf	??_sprintf
  2953  0E26  0848               	movf	??_sprintf,w
  2954  0E27  0086               	movwf	6
  2955  0E28  0187               	clrf	7
  2956  0E29  0181               	clrf	1
  2957  0E2A                     l686:
  2958  0E2A  0008               	return
  2959  0E2B                     __end_of_sprintf:
  2960                           
  2961                           	psect	text10
  2962  0E2B                     __ptext10:	
  2963 ;; *************** function _vfprintf *****************
  2964 ;; Defined at:
  2965 ;;		line 1390 in file "C:\Program Files\Microchip\xc8\v2.32\pic\sources\c99\common\doprnt.c"
  2966 ;; Parameters:    Size  Location     Type
  2967 ;;  fp              1    wreg     PTR struct _IO_FILE
  2968 ;;		 -> sprintf@f(5), 
  2969 ;;  fmt             2   11[COMMON] PTR const unsigned char 
  2970 ;;		 -> STR_32(21), STR_31(14), STR_30(11), STR_29(21), 
  2971 ;;		 -> STR_28(21), STR_27(13), STR_26(11), STR_25(21), 
  2972 ;;		 -> STR_24(21), STR_23(16), STR_22(11), STR_21(21), 
  2973 ;;		 -> STR_20(21), STR_19(15), STR_18(11), STR_17(21), 
  2974 ;;		 -> STR_16(18), STR_15(17), STR_14(20), STR_13(19), 
  2975 ;;		 -> STR_12(21), STR_11(17), STR_10(8), STR_9(21), 
  2976 ;;		 -> STR_8(21), STR_7(9), STR_6(5), STR_5(21), 
  2977 ;;		 -> STR_4(21), STR_3(9), STR_2(15), STR_1(21), 
  2978 ;;  ap              1   13[COMMON] PTR PTR void 
  2979 ;;		 -> sprintf@ap(1), 
  2980 ;; Auto vars:     Size  Location     Type
  2981 ;;  fp              1    7[BANK0 ] PTR struct _IO_FILE
  2982 ;;		 -> sprintf@f(5), 
  2983 ;;  cfmt            2    8[BANK0 ] PTR unsigned char 
  2984 ;;		 -> STR_32(21), STR_31(14), STR_30(11), STR_29(21), 
  2985 ;;		 -> STR_28(21), STR_27(13), STR_26(11), STR_25(21), 
  2986 ;;		 -> STR_24(21), STR_23(16), STR_22(11), STR_21(21), 
  2987 ;;		 -> STR_20(21), STR_19(15), STR_18(11), STR_17(21), 
  2988 ;;		 -> STR_16(18), STR_15(17), STR_14(20), STR_13(19), 
  2989 ;;		 -> STR_12(21), STR_11(17), STR_10(8), STR_9(21), 
  2990 ;;		 -> STR_8(21), STR_7(9), STR_6(5), STR_5(21), 
  2991 ;;		 -> STR_4(21), STR_3(9), STR_2(15), STR_1(21), 
  2992 ;; Return value:  Size  Location     Type
  2993 ;;                  2   11[COMMON] int 
  2994 ;; Registers used:
  2995 ;;		wreg, fsr0l, fsr0h, fsr1l, fsr1h, status,2, status,0, pclath, cstack
  2996 ;; Tracked objects:
  2997 ;;		On entry : 0/0
  2998 ;;		On exit  : 0/0
  2999 ;;		Unchanged: 0/0
  3000 ;; Data sizes:     COMMON   BANK0   BANK1   BANK2   BANK3   BANK4   BANK5   BANK6
  3001 ;;      Params:         3       0       0       0       0       0       0       0
  3002 ;;      Locals:         0       3       0       0       0       0       0       0
  3003 ;;      Temps:          0       2       0       0       0       0       0       0
  3004 ;;      Totals:         3       5       0       0       0       0       0       0
  3005 ;;Total ram usage:        8 bytes
  3006 ;; Hardware stack levels used: 1
  3007 ;; Hardware stack levels required when called: 3
  3008 ;; This function calls:
  3009 ;;		_vfpfcnvrt
  3010 ;; This function is called by:
  3011 ;;		_sprintf
  3012 ;; This function uses a non-reentrant model
  3013 ;;
  3014                           
  3015                           
  3016                           ;psect for function _vfprintf
  3017  0E2B                     _vfprintf:
  3018                           
  3019                           ;incstack = 0
  3020                           ; Regs used in _vfprintf: [wreg-fsr1h+status,2+status,0+pclath+cstack]
  3021                           ;vfprintf@fp stored from wreg
  3022  0E2B  0140               	movlb	0	; select bank0
  3023  0E2C  00C3               	movwf	vfprintf@fp
  3024  0E2D                     l1492:
  3025                           
  3026                           ;C:\Program Files\Microchip\xc8\v2.32\pic\sources\c99\common\doprnt.c: 1390: int vfprint
      +                          f(FILE *fp, const char *fmt, va_list ap);C:\Program Files\Microchip\xc8\v2.32\pic\source
      +                          s\c99\common\doprnt.c: 1391: {;C:\Program Files\Microchip\xc8\v2.32\pic\sources\c99\comm
      +                          on\doprnt.c: 1393:     char *cfmt;;C:\Program Files\Microchip\xc8\v2.32\pic\sources\c99\
      +                          common\doprnt.c: 1395:     cfmt = (char *)fmt;
  3027  0E2D  087C               	movf	vfprintf@fmt+1,w
  3028  0E2E  00C5               	movwf	vfprintf@cfmt+1
  3029  0E2F  087B               	movf	vfprintf@fmt,w
  3030  0E30  00C4               	movwf	vfprintf@cfmt
  3031  0E31                     l1494:
  3032                           
  3033                           ;C:\Program Files\Microchip\xc8\v2.32\pic\sources\c99\common\doprnt.c: 1396:     nout = 
      +                          0;
  3034  0E31  01A0               	clrf	_nout
  3035  0E32  01A1               	clrf	_nout+1
  3036                           
  3037                           ;C:\Program Files\Microchip\xc8\v2.32\pic\sources\c99\common\doprnt.c: 1397:     while (
      +                          *cfmt) {
  3038  0E33  2E45               	goto	l1498
  3039  0E34                     l1496:
  3040                           
  3041                           ;C:\Program Files\Microchip\xc8\v2.32\pic\sources\c99\common\doprnt.c: 1398:         nou
      +                          t += vfpfcnvrt(fp, &cfmt, ap);
  3042  0E34  3044               	movlw	(low (vfprintf@cfmt| 0))& (0+255)
  3043  0E35  00C1               	movwf	??_vfprintf
  3044  0E36  0841               	movf	??_vfprintf,w
  3045  0E37  00F8               	movwf	vfpfcnvrt@fmt
  3046  0E38  087D               	movf	vfprintf@ap,w
  3047  0E39  00C2               	movwf	??_vfprintf+1
  3048  0E3A  0842               	movf	??_vfprintf+1,w
  3049  0E3B  00F9               	movwf	vfpfcnvrt@ap
  3050  0E3C  0843               	movf	vfprintf@fp,w
  3051  0E3D  3180  201D  318E   	fcall	_vfpfcnvrt
  3052  0E40  0878               	movf	?_vfpfcnvrt,w
  3053  0E41  0140               	movlb	0	; select bank0
  3054  0E42  07A0               	addwf	_nout,f
  3055  0E43  0879               	movf	?_vfpfcnvrt+1,w
  3056  0E44  3DA1               	addwfc	_nout+1,f
  3057  0E45                     l1498:
  3058                           
  3059                           ;C:\Program Files\Microchip\xc8\v2.32\pic\sources\c99\common\doprnt.c: 1397:     while (
      +                          *cfmt) {
  3060  0E45  0844               	movf	vfprintf@cfmt,w
  3061  0E46  0084               	movwf	4
  3062  0E47  0845               	movf	vfprintf@cfmt+1,w
  3063  0E48  0085               	movwf	5
  3064  0E49  0012               	moviw fsr0++
  3065  0E4A  1D03               	btfss	3,2
  3066  0E4B  2E4D               	goto	u371
  3067  0E4C  2E4E               	goto	u370
  3068  0E4D                     u371:
  3069  0E4D  2E34               	goto	l1496
  3070  0E4E                     u370:
  3071  0E4E                     l1500:
  3072                           
  3073                           ;C:\Program Files\Microchip\xc8\v2.32\pic\sources\c99\common\doprnt.c: 1400:     return 
      +                          nout;
  3074  0E4E  0821               	movf	_nout+1,w
  3075  0E4F  00FC               	movwf	?_vfprintf+1
  3076  0E50  0820               	movf	_nout,w
  3077  0E51  00FB               	movwf	?_vfprintf
  3078  0E52                     l725:
  3079  0E52  0008               	return
  3080  0E53                     __end_of_vfprintf:
  3081                           
  3082                           	psect	text11
  3083  001D                     __ptext11:	
  3084 ;; *************** function _vfpfcnvrt *****************
  3085 ;; Defined at:
  3086 ;;		line 692 in file "C:\Program Files\Microchip\xc8\v2.32\pic\sources\c99\common\doprnt.c"
  3087 ;; Parameters:    Size  Location     Type
  3088 ;;  fp              1    wreg     PTR struct _IO_FILE
  3089 ;;		 -> sprintf@f(5), 
  3090 ;;  fmt             1    8[COMMON] PTR PTR unsigned char 
  3091 ;;		 -> vfprintf@cfmt(2), 
  3092 ;;  ap              1    9[COMMON] PTR PTR void 
  3093 ;;		 -> sprintf@ap(1), 
  3094 ;; Auto vars:     Size  Location     Type
  3095 ;;  fp              1   10[COMMON] PTR struct _IO_FILE
  3096 ;;		 -> sprintf@f(5), 
  3097 ;;  llu             8    0        unsigned long long 
  3098 ;;  ll              8    0        long long 
  3099 ;;  f               4    0        long long 
  3100 ;;  ct              3    0        unsigned char [3]
  3101 ;;  vp              2    0        PTR void 
  3102 ;;  i               2    0        int 
  3103 ;;  done            2    0        int 
  3104 ;;  cp              2    0        PTR unsigned char 
  3105 ;;  c               1    0        unsigned char 
  3106 ;; Return value:  Size  Location     Type
  3107 ;;                  2    8[COMMON] int 
  3108 ;; Registers used:
  3109 ;;		wreg, fsr0l, fsr0h, fsr1l, fsr1h, status,2, status,0, pclath, cstack
  3110 ;; Tracked objects:
  3111 ;;		On entry : 0/0
  3112 ;;		On exit  : 0/0
  3113 ;;		Unchanged: 0/0
  3114 ;; Data sizes:     COMMON   BANK0   BANK1   BANK2   BANK3   BANK4   BANK5   BANK6
  3115 ;;      Params:         2       0       0       0       0       0       0       0
  3116 ;;      Locals:         1       0       0       0       0       0       0       0
  3117 ;;      Temps:          0       5       0       0       0       0       0       0
  3118 ;;      Totals:         3       5       0       0       0       0       0       0
  3119 ;;Total ram usage:        8 bytes
  3120 ;; Hardware stack levels used: 1
  3121 ;; Hardware stack levels required when called: 2
  3122 ;; This function calls:
  3123 ;;		_fputc
  3124 ;; This function is called by:
  3125 ;;		_vfprintf
  3126 ;; This function uses a non-reentrant model
  3127 ;;
  3128                           
  3129                           
  3130                           ;psect for function _vfpfcnvrt
  3131  001D                     _vfpfcnvrt:
  3132                           
  3133                           ;incstack = 0
  3134                           ; Regs used in _vfpfcnvrt: [wreg-fsr1h+status,2+status,0+pclath+cstack]
  3135                           ;vfpfcnvrt@fp stored from wreg
  3136  001D  00FA               	movwf	vfpfcnvrt@fp
  3137  001E                     l1460:
  3138                           
  3139                           ;C:\Program Files\Microchip\xc8\v2.32\pic\sources\c99\common\doprnt.c: 692: static int v
      +                          fpfcnvrt(FILE *fp, char *fmt[], va_list ap);C:\Program Files\Microchip\xc8\v2.32\pic\sou
      +                          rces\c99\common\doprnt.c: 693: {;C:\Program Files\Microchip\xc8\v2.32\pic\sources\c99\co
      +                          mmon\doprnt.c: 694:     char c, *cp, ct[3];;C:\Program Files\Microchip\xc8\v2.32\pic\sou
      +                          rces\c99\common\doprnt.c: 695:     int done, i;;C:\Program Files\Microchip\xc8\v2.32\pic
      +                          \sources\c99\common\doprnt.c: 696:     long long ll;;C:\Program Files\Microchip\xc8\v2.3
      +                          2\pic\sources\c99\common\doprnt.c: 697:     unsigned long long llu;
  3140  001E  0878               	movf	vfpfcnvrt@fmt,w
  3141  001F  0086               	movwf	6
  3142  0020  0187               	clrf	7
  3143  0021  3F40               	moviw [0]fsr1
  3144  0022  0140               	movlb	0	; select bank0
  3145  0023  00BC               	movwf	??_vfpfcnvrt
  3146  0024  3F41               	moviw [1]fsr1
  3147  0025  00BD               	movwf	??_vfpfcnvrt+1
  3148  0026  083C               	movf	??_vfpfcnvrt,w
  3149  0027  0084               	movwf	4
  3150  0028  083D               	movf	??_vfpfcnvrt+1,w
  3151  0029  0085               	movwf	5
  3152  002A  0012               	moviw fsr0++
  3153  002B  3A25               	xorlw	37
  3154  002C  1D03               	btfss	3,2
  3155  002D  282F               	goto	u351
  3156  002E  2830               	goto	u350
  3157  002F                     u351:
  3158  002F  2874               	goto	l1484
  3159  0030                     u350:
  3160  0030                     l1462:
  3161                           
  3162                           ;C:\Program Files\Microchip\xc8\v2.32\pic\sources\c99\common\doprnt.c: 703:         ++*f
      +                          mt;
  3163  0030  0878               	movf	vfpfcnvrt@fmt,w
  3164  0031  0086               	movwf	6
  3165  0032  0187               	clrf	7
  3166  0033  3001               	movlw	1
  3167  0034  0781               	addwf	1,f
  3168  0035  3141               	addfsr 1,1
  3169  0036  1803               	skipnc
  3170  0037  0A81               	incf	1,f
  3171  0038                     l1464:
  3172                           
  3173                           ;C:\Program Files\Microchip\xc8\v2.32\pic\sources\c99\common\doprnt.c: 705:         flag
      +                          s = width = 0;
  3174  0038  01A2               	clrf	_width
  3175  0039  01A3               	clrf	_width+1
  3176  003A  01A6               	clrf	_flags
  3177  003B  01A7               	clrf	_flags+1
  3178  003C                     l1466:
  3179                           
  3180                           ;C:\Program Files\Microchip\xc8\v2.32\pic\sources\c99\common\doprnt.c: 706:         prec
      +                           = -1;
  3181  003C  30FF               	movlw	255
  3182  003D  00A4               	movwf	_prec
  3183  003E  30FF               	movlw	255
  3184  003F  00A5               	movwf	_prec+1
  3185  0040                     l1468:
  3186                           
  3187                           ;C:\Program Files\Microchip\xc8\v2.32\pic\sources\c99\common\doprnt.c: 1372:         if 
      +                          ((*fmt)[0] == '%') {
  3188  0040  0878               	movf	vfpfcnvrt@fmt,w
  3189  0041  0086               	movwf	6
  3190  0042  0187               	clrf	7
  3191  0043  3F40               	moviw [0]fsr1
  3192  0044  00BC               	movwf	??_vfpfcnvrt
  3193  0045  3F41               	moviw [1]fsr1
  3194  0046  00BD               	movwf	??_vfpfcnvrt+1
  3195  0047  083C               	movf	??_vfpfcnvrt,w
  3196  0048  0084               	movwf	4
  3197  0049  083D               	movf	??_vfpfcnvrt+1,w
  3198  004A  0085               	movwf	5
  3199  004B  0012               	moviw fsr0++
  3200  004C  3A25               	xorlw	37
  3201  004D  1D03               	btfss	3,2
  3202  004E  2850               	goto	u361
  3203  004F  2851               	goto	u360
  3204  0050                     u361:
  3205  0050  2869               	goto	l1478
  3206  0051                     u360:
  3207  0051                     l1470:
  3208                           
  3209                           ;C:\Program Files\Microchip\xc8\v2.32\pic\sources\c99\common\doprnt.c: 1373:            
      +                           ++*fmt;
  3210  0051  0878               	movf	vfpfcnvrt@fmt,w
  3211  0052  0086               	movwf	6
  3212  0053  0187               	clrf	7
  3213  0054  3001               	movlw	1
  3214  0055  0781               	addwf	1,f
  3215  0056  3141               	addfsr 1,1
  3216  0057  1803               	skipnc
  3217  0058  0A81               	incf	1,f
  3218  0059                     l1472:
  3219                           
  3220                           ;C:\Program Files\Microchip\xc8\v2.32\pic\sources\c99\common\doprnt.c: 1374:            
      +                           fputc((int)'%', fp);
  3221  0059  3025               	movlw	37
  3222  005A  00F0               	movwf	fputc@c
  3223  005B  3000               	movlw	0
  3224  005C  00F1               	movwf	fputc@c+1
  3225  005D  087A               	movf	vfpfcnvrt@fp,w
  3226  005E  00BC               	movwf	??_vfpfcnvrt
  3227  005F  083C               	movf	??_vfpfcnvrt,w
  3228  0060  00F2               	movwf	fputc@fp
  3229  0061  318E  269C  3180   	fcall	_fputc
  3230  0064                     l1474:
  3231                           
  3232                           ;C:\Program Files\Microchip\xc8\v2.32\pic\sources\c99\common\doprnt.c: 1375:            
      +                           return 1;
  3233  0064  3001               	movlw	1
  3234  0065  00F8               	movwf	?_vfpfcnvrt
  3235  0066  3000               	movlw	0
  3236  0067  00F9               	movwf	?_vfpfcnvrt+1
  3237  0068  2896               	goto	l719
  3238  0069                     l1478:
  3239                           
  3240                           ;C:\Program Files\Microchip\xc8\v2.32\pic\sources\c99\common\doprnt.c: 1379:         ++*
      +                          fmt;
  3241  0069  0878               	movf	vfpfcnvrt@fmt,w
  3242  006A  0086               	movwf	6
  3243  006B  0187               	clrf	7
  3244  006C  3001               	movlw	1
  3245  006D  0781               	addwf	1,f
  3246  006E  3141               	addfsr 1,1
  3247  006F  1803               	skipnc
  3248  0070  0A81               	incf	1,f
  3249  0071                     l1480:
  3250                           
  3251                           ;C:\Program Files\Microchip\xc8\v2.32\pic\sources\c99\common\doprnt.c: 1380:         ret
      +                          urn 0;
  3252  0071  01F8               	clrf	?_vfpfcnvrt
  3253  0072  01F9               	clrf	?_vfpfcnvrt+1
  3254  0073  2896               	goto	l719
  3255  0074                     l1484:
  3256                           
  3257                           ;C:\Program Files\Microchip\xc8\v2.32\pic\sources\c99\common\doprnt.c: 1384:     fputc((
      +                          int)(*fmt)[0], fp);
  3258  0074  0878               	movf	vfpfcnvrt@fmt,w
  3259  0075  0086               	movwf	6
  3260  0076  0187               	clrf	7
  3261  0077  3F40               	moviw [0]fsr1
  3262  0078  00BC               	movwf	??_vfpfcnvrt
  3263  0079  3F41               	moviw [1]fsr1
  3264  007A  00BD               	movwf	??_vfpfcnvrt+1
  3265  007B  083C               	movf	??_vfpfcnvrt,w
  3266  007C  0084               	movwf	4
  3267  007D  083D               	movf	??_vfpfcnvrt+1,w
  3268  007E  0085               	movwf	5
  3269  007F  0800               	movf	0,w	;code access
  3270  0080  00BE               	movwf	??_vfpfcnvrt+2
  3271  0081  01BF               	clrf	??_vfpfcnvrt+3
  3272  0082  083E               	movf	??_vfpfcnvrt+2,w
  3273  0083  00F0               	movwf	fputc@c
  3274  0084  083F               	movf	??_vfpfcnvrt+3,w
  3275  0085  00F1               	movwf	fputc@c+1
  3276  0086  087A               	movf	vfpfcnvrt@fp,w
  3277  0087  00C0               	movwf	??_vfpfcnvrt+4
  3278  0088  0840               	movf	??_vfpfcnvrt+4,w
  3279  0089  00F2               	movwf	fputc@fp
  3280  008A  318E  269C  3180   	fcall	_fputc
  3281  008D                     l1486:
  3282                           
  3283                           ;C:\Program Files\Microchip\xc8\v2.32\pic\sources\c99\common\doprnt.c: 1385:     ++*fmt;
  3284  008D  0878               	movf	vfpfcnvrt@fmt,w
  3285  008E  0086               	movwf	6
  3286  008F  0187               	clrf	7
  3287  0090  3001               	movlw	1
  3288  0091  0781               	addwf	1,f
  3289  0092  3141               	addfsr 1,1
  3290  0093  1803               	skipnc
  3291  0094  0A81               	incf	1,f
  3292  0095  2864               	goto	l1474
  3293  0096                     l719:
  3294  0096  0008               	return
  3295  0097                     __end_of_vfpfcnvrt:
  3296                           
  3297                           	psect	text12
  3298  0E9C                     __ptext12:	
  3299 ;; *************** function _fputc *****************
  3300 ;; Defined at:
  3301 ;;		line 8 in file "C:\Program Files\Microchip\xc8\v2.32\pic\sources\c99\common\nf_fputc.c"
  3302 ;; Parameters:    Size  Location     Type
  3303 ;;  c               2    0[COMMON] int 
  3304 ;;  fp              1    2[COMMON] PTR struct _IO_FILE
  3305 ;;		 -> sprintf@f(5), 
  3306 ;; Auto vars:     Size  Location     Type
  3307 ;;		None
  3308 ;; Return value:  Size  Location     Type
  3309 ;;                  2    0[COMMON] int 
  3310 ;; Registers used:
  3311 ;;		wreg, fsr0l, fsr0h, fsr1l, fsr1h, status,2, status,0, pclath, cstack
  3312 ;; Tracked objects:
  3313 ;;		On entry : 0/0
  3314 ;;		On exit  : 0/0
  3315 ;;		Unchanged: 0/0
  3316 ;; Data sizes:     COMMON   BANK0   BANK1   BANK2   BANK3   BANK4   BANK5   BANK6
  3317 ;;      Params:         3       0       0       0       0       0       0       0
  3318 ;;      Locals:         0       0       0       0       0       0       0       0
  3319 ;;      Temps:          5       0       0       0       0       0       0       0
  3320 ;;      Totals:         8       0       0       0       0       0       0       0
  3321 ;;Total ram usage:        8 bytes
  3322 ;; Hardware stack levels used: 1
  3323 ;; Hardware stack levels required when called: 1
  3324 ;; This function calls:
  3325 ;;		_putch
  3326 ;; This function is called by:
  3327 ;;		_vfpfcnvrt
  3328 ;; This function uses a non-reentrant model
  3329 ;;
  3330                           
  3331                           
  3332                           ;psect for function _fputc
  3333  0E9C                     _fputc:
  3334  0E9C                     l1444:	
  3335                           ;incstack = 0
  3336                           ; Regs used in _fputc: [wreg-fsr1h+status,2+status,0+pclath+cstack]
  3337                           
  3338  0E9C  0872               	movf	fputc@fp,w
  3339  0E9D  1903               	btfsc	3,2
  3340  0E9E  2EA0               	goto	u311
  3341  0E9F  2EA1               	goto	u310
  3342  0EA0                     u311:
  3343  0EA0  2EA6               	goto	l1448
  3344  0EA1                     u310:
  3345  0EA1                     l1446:
  3346  0EA1  0872               	movf	fputc@fp,w
  3347  0EA2  1D03               	btfss	3,2
  3348  0EA3  2EA5               	goto	u321
  3349  0EA4  2EA6               	goto	u320
  3350  0EA5                     u321:
  3351  0EA5  2EAB               	goto	l1450
  3352  0EA6                     u320:
  3353  0EA6                     l1448:
  3354  0EA6  0870               	movf	fputc@c,w
  3355  0EA7  3180  2005  318E   	fcall	_putch
  3356  0EAA  2EEA               	goto	l737
  3357  0EAB                     l1450:
  3358  0EAB  0872               	movf	fputc@fp,w
  3359  0EAC  3E03               	addlw	3
  3360  0EAD  0086               	movwf	6
  3361  0EAE  0187               	clrf	7
  3362  0EAF  0016               	moviw fsr1++
  3363  0EB0  0401               	iorwf	1,w
  3364  0EB1  1903               	btfsc	3,2
  3365  0EB2  2EB4               	goto	u331
  3366  0EB3  2EB5               	goto	u330
  3367  0EB4                     u331:
  3368  0EB4  2ED2               	goto	l1454
  3369  0EB5                     u330:
  3370  0EB5                     l1452:
  3371  0EB5  0872               	movf	fputc@fp,w
  3372  0EB6  3E03               	addlw	3
  3373  0EB7  0086               	movwf	6
  3374  0EB8  0187               	clrf	7
  3375  0EB9  3F40               	moviw [0]fsr1
  3376  0EBA  00F3               	movwf	??_fputc
  3377  0EBB  3F41               	moviw [1]fsr1
  3378  0EBC  00F4               	movwf	??_fputc+1
  3379  0EBD  0A72               	incf	fputc@fp,w
  3380  0EBE  0086               	movwf	6
  3381  0EBF  0187               	clrf	7
  3382  0EC0  3F40               	moviw [0]fsr1
  3383  0EC1  00F5               	movwf	??_fputc+2
  3384  0EC2  3F41               	moviw [1]fsr1
  3385  0EC3  00F6               	movwf	??_fputc+3
  3386  0EC4  0876               	movf	??_fputc+3,w
  3387  0EC5  3A80               	xorlw	128
  3388  0EC6  00F7               	movwf	??_fputc+4
  3389  0EC7  0874               	movf	??_fputc+1,w
  3390  0EC8  3A80               	xorlw	128
  3391  0EC9  0277               	subwf	??_fputc+4,w
  3392  0ECA  1D03               	skipz
  3393  0ECB  2ECE               	goto	u345
  3394  0ECC  0873               	movf	??_fputc,w
  3395  0ECD  0275               	subwf	??_fputc+2,w
  3396  0ECE                     u345:
  3397  0ECE  1803               	skipnc
  3398  0ECF  2ED1               	goto	u341
  3399  0ED0  2ED2               	goto	u340
  3400  0ED1                     u341:
  3401  0ED1  2EEA               	goto	l737
  3402  0ED2                     u340:
  3403  0ED2                     l1454:
  3404  0ED2  0870               	movf	fputc@c,w
  3405  0ED3  00F3               	movwf	??_fputc
  3406  0ED4  0872               	movf	fputc@fp,w
  3407  0ED5  0086               	movwf	6
  3408  0ED6  0187               	clrf	7
  3409  0ED7  0A72               	incf	fputc@fp,w
  3410  0ED8  0084               	movwf	4
  3411  0ED9  0185               	clrf	5
  3412  0EDA  0800               	movf	0,w
  3413  0EDB  0701               	addwf	1,w
  3414  0EDC  00F4               	movwf	??_fputc+1
  3415  0EDD  0874               	movf	??_fputc+1,w
  3416  0EDE  0086               	movwf	6
  3417  0EDF  0187               	clrf	7
  3418  0EE0  0873               	movf	??_fputc,w
  3419  0EE1  0081               	movwf	1
  3420  0EE2                     l1456:
  3421  0EE2  0A72               	incf	fputc@fp,w
  3422  0EE3  0086               	movwf	6
  3423  0EE4  0187               	clrf	7
  3424  0EE5  3001               	movlw	1
  3425  0EE6  0781               	addwf	1,f
  3426  0EE7  3141               	addfsr 1,1
  3427  0EE8  1803               	skipnc
  3428  0EE9  0A81               	incf	1,f
  3429  0EEA                     l737:
  3430  0EEA  0008               	return
  3431  0EEB                     __end_of_fputc:
  3432                           
  3433                           	psect	text13
  3434  0005                     __ptext13:	
  3435 ;; *************** function _putch *****************
  3436 ;; Defined at:
  3437 ;;		line 7 in file "C:\Program Files\Microchip\xc8\v2.32\pic\sources\c99\common\putch.c"
  3438 ;; Parameters:    Size  Location     Type
  3439 ;;  c               1    wreg     unsigned char 
  3440 ;; Auto vars:     Size  Location     Type
  3441 ;;  c               1    0[COMMON] unsigned char 
  3442 ;; Return value:  Size  Location     Type
  3443 ;;                  1    wreg      void 
  3444 ;; Registers used:
  3445 ;;		wreg
  3446 ;; Tracked objects:
  3447 ;;		On entry : 0/0
  3448 ;;		On exit  : 0/0
  3449 ;;		Unchanged: 0/0
  3450 ;; Data sizes:     COMMON   BANK0   BANK1   BANK2   BANK3   BANK4   BANK5   BANK6
  3451 ;;      Params:         0       0       0       0       0       0       0       0
  3452 ;;      Locals:         0       0       0       0       0       0       0       0
  3453 ;;      Temps:          0       0       0       0       0       0       0       0
  3454 ;;      Totals:         0       0       0       0       0       0       0       0
  3455 ;;Total ram usage:        0 bytes
  3456 ;; Hardware stack levels used: 1
  3457 ;; This function calls:
  3458 ;;		Nothing
  3459 ;; This function is called by:
  3460 ;;		_fputc
  3461 ;; This function uses a non-reentrant model
  3462 ;;
  3463                           
  3464                           
  3465                           ;psect for function _putch
  3466  0005                     _putch:
  3467  0005                     l748:	
  3468                           ;incstack = 0
  3469                           ; Regs used in _putch: [wreg]
  3470                           
  3471  0005  0008               	return
  3472  0006                     __end_of_putch:
  3473                           
  3474                           	psect	text14
  3475  050B                     __ptext14:	
  3476 ;; *************** function _secuencias_leds4 *****************
  3477 ;; Defined at:
  3478 ;;		line 414 in file "main.c"
  3479 ;; Parameters:    Size  Location     Type
  3480 ;;		None
  3481 ;; Auto vars:     Size  Location     Type
  3482 ;;  i               2    1[COMMON] int 
  3483 ;; Return value:  Size  Location     Type
  3484 ;;                  1    wreg      void 
  3485 ;; Registers used:
  3486 ;;		wreg
  3487 ;; Tracked objects:
  3488 ;;		On entry : 0/0
  3489 ;;		On exit  : 0/0
  3490 ;;		Unchanged: 0/0
  3491 ;; Data sizes:     COMMON   BANK0   BANK1   BANK2   BANK3   BANK4   BANK5   BANK6
  3492 ;;      Params:         0       0       0       0       0       0       0       0
  3493 ;;      Locals:         2       0       0       0       0       0       0       0
  3494 ;;      Temps:          1       0       0       0       0       0       0       0
  3495 ;;      Totals:         3       0       0       0       0       0       0       0
  3496 ;;Total ram usage:        3 bytes
  3497 ;; Hardware stack levels used: 1
  3498 ;; This function calls:
  3499 ;;		Nothing
  3500 ;; This function is called by:
  3501 ;;		_coctel_1
  3502 ;;		_coctel_3
  3503 ;;		_coctel_4
  3504 ;; This function uses a non-reentrant model
  3505 ;;
  3506                           
  3507                           
  3508                           ;psect for function _secuencias_leds4
  3509  050B                     _secuencias_leds4:
  3510  050B                     l1040:	
  3511                           ;incstack = 0
  3512                           ; Regs used in _secuencias_leds4: [wreg]
  3513                           
  3514                           
  3515                           ;main.c: 416:        for(int i =1; i<6; i++ ){
  3516  050B  3001               	movlw	1
  3517  050C  00F1               	movwf	secuencias_leds4@i
  3518  050D  3000               	movlw	0
  3519  050E  00F2               	movwf	secuencias_leds4@i+1
  3520  050F                     l126:
  3521                           
  3522                           ;main.c: 418:            LATAbits.LATA2 = 1;;
  3523  050F  0140               	movlb	0	; select bank0
  3524  0510  1518               	bsf	24,2	;volatile
  3525                           
  3526                           ;main.c: 419:            LATBbits.LATB7 = 1;;
  3527  0511  1799               	bsf	25,7	;volatile
  3528  0512                     l1044:
  3529                           
  3530                           ;main.c: 420:            _delay((unsigned long)((400)*(1000000/4000.0)));
  3531  0512  3082               	movlw	130
  3532  0513  00F0               	movwf	??_secuencias_leds4
  3533  0514  30DE               	movlw	222
  3534  0515                     u777:
  3535  0515  0B89               	decfsz	9,f
  3536  0516  2D15               	goto	u777
  3537  0517  0BF0               	decfsz	??_secuencias_leds4,f
  3538  0518  2D15               	goto	u777
  3539  0519                     l1046:
  3540                           
  3541                           ;main.c: 422:            LATAbits.LATA2 = 0;;
  3542  0519  0140               	movlb	0	; select bank0
  3543  051A  1118               	bcf	24,2	;volatile
  3544  051B                     l1048:
  3545                           
  3546                           ;main.c: 423:            LATBbits.LATB7 = 0;;
  3547  051B  1399               	bcf	25,7	;volatile
  3548                           
  3549                           ;main.c: 424:            _delay((unsigned long)((400)*(1000000/4000.0)));
  3550  051C  3082               	movlw	130
  3551  051D  00F0               	movwf	??_secuencias_leds4
  3552  051E  30DE               	movlw	222
  3553  051F                     u787:
  3554  051F  0B89               	decfsz	9,f
  3555  0520  2D1F               	goto	u787
  3556  0521  0BF0               	decfsz	??_secuencias_leds4,f
  3557  0522  2D1F               	goto	u787
  3558  0523                     l1050:
  3559                           
  3560                           ;main.c: 426:               LATBbits.LATB7 = 1;;
  3561  0523  0140               	movlb	0	; select bank0
  3562  0524  1799               	bsf	25,7	;volatile
  3563  0525                     l1052:
  3564                           
  3565                           ;main.c: 427:              LATAbits.LATA2 = 1;;
  3566  0525  1518               	bsf	24,2	;volatile
  3567                           
  3568                           ;main.c: 428:           _delay((unsigned long)((400)*(1000000/4000.0)));
  3569  0526  3082               	movlw	130
  3570  0527  00F0               	movwf	??_secuencias_leds4
  3571  0528  30DE               	movlw	222
  3572  0529                     u797:
  3573  0529  0B89               	decfsz	9,f
  3574  052A  2D29               	goto	u797
  3575  052B  0BF0               	decfsz	??_secuencias_leds4,f
  3576  052C  2D29               	goto	u797
  3577  052D                     l1054:
  3578                           
  3579                           ;main.c: 430:              LATBbits.LATB7 = 0;;
  3580  052D  0140               	movlb	0	; select bank0
  3581  052E  1399               	bcf	25,7	;volatile
  3582  052F                     l1056:
  3583                           
  3584                           ;main.c: 431:              LATAbits.LATA2 = 0;;
  3585  052F  1118               	bcf	24,2	;volatile
  3586                           
  3587                           ;main.c: 432:           _delay((unsigned long)((400)*(1000000/4000.0)));
  3588  0530  3082               	movlw	130
  3589  0531  00F0               	movwf	??_secuencias_leds4
  3590  0532  30DE               	movlw	222
  3591  0533                     u807:
  3592  0533  0B89               	decfsz	9,f
  3593  0534  2D33               	goto	u807
  3594  0535  0BF0               	decfsz	??_secuencias_leds4,f
  3595  0536  2D33               	goto	u807
  3596  0537                     l1058:
  3597                           
  3598                           ;main.c: 434:           LATAbits.LATA2 = 1;;
  3599  0537  0140               	movlb	0	; select bank0
  3600  0538  1518               	bsf	24,2	;volatile
  3601                           
  3602                           ;main.c: 435:           _delay((unsigned long)((150)*(1000000/4000.0)));
  3603  0539  3031               	movlw	49
  3604  053A  00F0               	movwf	??_secuencias_leds4
  3605  053B  30B2               	movlw	178
  3606  053C                     u817:
  3607  053C  0B89               	decfsz	9,f
  3608  053D  2D3C               	goto	u817
  3609  053E  0BF0               	decfsz	??_secuencias_leds4,f
  3610  053F  2D3C               	goto	u817
  3611  0540  3200               	nop2
  3612  0541                     l1060:
  3613                           
  3614                           ;main.c: 436:             LATBbits.LATB7 = 1;;
  3615  0541  0140               	movlb	0	; select bank0
  3616  0542  1799               	bsf	25,7	;volatile
  3617                           
  3618                           ;main.c: 437:           _delay((unsigned long)((150)*(1000000/4000.0)));
  3619  0543  3031               	movlw	49
  3620  0544  00F0               	movwf	??_secuencias_leds4
  3621  0545  30B2               	movlw	178
  3622  0546                     u827:
  3623  0546  0B89               	decfsz	9,f
  3624  0547  2D46               	goto	u827
  3625  0548  0BF0               	decfsz	??_secuencias_leds4,f
  3626  0549  2D46               	goto	u827
  3627  054A  3200               	nop2
  3628  054B                     l1062:
  3629                           
  3630                           ;main.c: 438:           LATBbits.LATB7 = 0;;
  3631  054B  0140               	movlb	0	; select bank0
  3632  054C  1399               	bcf	25,7	;volatile
  3633                           
  3634                           ;main.c: 439:           _delay((unsigned long)((150)*(1000000/4000.0)));
  3635  054D  3031               	movlw	49
  3636  054E  00F0               	movwf	??_secuencias_leds4
  3637  054F  30B2               	movlw	178
  3638  0550                     u837:
  3639  0550  0B89               	decfsz	9,f
  3640  0551  2D50               	goto	u837
  3641  0552  0BF0               	decfsz	??_secuencias_leds4,f
  3642  0553  2D50               	goto	u837
  3643  0554  3200               	nop2
  3644  0555                     l1064:
  3645                           
  3646                           ;main.c: 440:           LATAbits.LATA2 = 0;;
  3647  0555  0140               	movlb	0	; select bank0
  3648  0556  1118               	bcf	24,2	;volatile
  3649                           
  3650                           ;main.c: 441:           _delay((unsigned long)((150)*(1000000/4000.0)));
  3651  0557  3031               	movlw	49
  3652  0558  00F0               	movwf	??_secuencias_leds4
  3653  0559  30B2               	movlw	178
  3654  055A                     u847:
  3655  055A  0B89               	decfsz	9,f
  3656  055B  2D5A               	goto	u847
  3657  055C  0BF0               	decfsz	??_secuencias_leds4,f
  3658  055D  2D5A               	goto	u847
  3659  055E  3200               	nop2
  3660  055F                     l1066:
  3661                           
  3662                           ;main.c: 442:            LATAbits.LATA2 = 1;;
  3663  055F  0140               	movlb	0	; select bank0
  3664  0560  1518               	bsf	24,2	;volatile
  3665                           
  3666                           ;main.c: 443:           _delay((unsigned long)((150)*(1000000/4000.0)));
  3667  0561  3031               	movlw	49
  3668  0562  00F0               	movwf	??_secuencias_leds4
  3669  0563  30B2               	movlw	178
  3670  0564                     u857:
  3671  0564  0B89               	decfsz	9,f
  3672  0565  2D64               	goto	u857
  3673  0566  0BF0               	decfsz	??_secuencias_leds4,f
  3674  0567  2D64               	goto	u857
  3675  0568  3200               	nop2
  3676  0569                     l1068:
  3677                           
  3678                           ;main.c: 444:             LATBbits.LATB7 = 1;;
  3679  0569  0140               	movlb	0	; select bank0
  3680  056A  1799               	bsf	25,7	;volatile
  3681                           
  3682                           ;main.c: 445:           _delay((unsigned long)((150)*(1000000/4000.0)));
  3683  056B  3031               	movlw	49
  3684  056C  00F0               	movwf	??_secuencias_leds4
  3685  056D  30B2               	movlw	178
  3686  056E                     u867:
  3687  056E  0B89               	decfsz	9,f
  3688  056F  2D6E               	goto	u867
  3689  0570  0BF0               	decfsz	??_secuencias_leds4,f
  3690  0571  2D6E               	goto	u867
  3691  0572  3200               	nop2
  3692  0573                     l1070:
  3693                           
  3694                           ;main.c: 446:           LATBbits.LATB7 = 0;;
  3695  0573  0140               	movlb	0	; select bank0
  3696  0574  1399               	bcf	25,7	;volatile
  3697                           
  3698                           ;main.c: 447:           _delay((unsigned long)((150)*(1000000/4000.0)));
  3699  0575  3031               	movlw	49
  3700  0576  00F0               	movwf	??_secuencias_leds4
  3701  0577  30B2               	movlw	178
  3702  0578                     u877:
  3703  0578  0B89               	decfsz	9,f
  3704  0579  2D78               	goto	u877
  3705  057A  0BF0               	decfsz	??_secuencias_leds4,f
  3706  057B  2D78               	goto	u877
  3707  057C  3200               	nop2
  3708  057D                     l1072:
  3709                           
  3710                           ;main.c: 448:           LATAbits.LATA2 = 0;;
  3711  057D  0140               	movlb	0	; select bank0
  3712  057E  1118               	bcf	24,2	;volatile
  3713                           
  3714                           ;main.c: 449:           _delay((unsigned long)((150)*(1000000/4000.0)));
  3715  057F  3031               	movlw	49
  3716  0580  00F0               	movwf	??_secuencias_leds4
  3717  0581  30B2               	movlw	178
  3718  0582                     u887:
  3719  0582  0B89               	decfsz	9,f
  3720  0583  2D82               	goto	u887
  3721  0584  0BF0               	decfsz	??_secuencias_leds4,f
  3722  0585  2D82               	goto	u887
  3723  0586  3200               	nop2
  3724  0587                     l1074:
  3725                           
  3726                           ;main.c: 450:           LATAbits.LATA2 = 1;;
  3727  0587  0140               	movlb	0	; select bank0
  3728  0588  1518               	bsf	24,2	;volatile
  3729                           
  3730                           ;main.c: 451:           _delay((unsigned long)((150)*(1000000/4000.0)));
  3731  0589  3031               	movlw	49
  3732  058A  00F0               	movwf	??_secuencias_leds4
  3733  058B  30B2               	movlw	178
  3734  058C                     u897:
  3735  058C  0B89               	decfsz	9,f
  3736  058D  2D8C               	goto	u897
  3737  058E  0BF0               	decfsz	??_secuencias_leds4,f
  3738  058F  2D8C               	goto	u897
  3739  0590  3200               	nop2
  3740  0591                     l1076:
  3741                           
  3742                           ;main.c: 452:             LATBbits.LATB7 = 1;;
  3743  0591  0140               	movlb	0	; select bank0
  3744  0592  1799               	bsf	25,7	;volatile
  3745                           
  3746                           ;main.c: 453:           _delay((unsigned long)((150)*(1000000/4000.0)));
  3747  0593  3031               	movlw	49
  3748  0594  00F0               	movwf	??_secuencias_leds4
  3749  0595  30B2               	movlw	178
  3750  0596                     u907:
  3751  0596  0B89               	decfsz	9,f
  3752  0597  2D96               	goto	u907
  3753  0598  0BF0               	decfsz	??_secuencias_leds4,f
  3754  0599  2D96               	goto	u907
  3755  059A  3200               	nop2
  3756  059B                     l1078:
  3757                           
  3758                           ;main.c: 454:           LATBbits.LATB7 = 0;;
  3759  059B  0140               	movlb	0	; select bank0
  3760  059C  1399               	bcf	25,7	;volatile
  3761                           
  3762                           ;main.c: 455:           _delay((unsigned long)((150)*(1000000/4000.0)));
  3763  059D  3031               	movlw	49
  3764  059E  00F0               	movwf	??_secuencias_leds4
  3765  059F  30B2               	movlw	178
  3766  05A0                     u917:
  3767  05A0  0B89               	decfsz	9,f
  3768  05A1  2DA0               	goto	u917
  3769  05A2  0BF0               	decfsz	??_secuencias_leds4,f
  3770  05A3  2DA0               	goto	u917
  3771  05A4  3200               	nop2
  3772  05A5                     l1080:
  3773                           
  3774                           ;main.c: 456:           LATAbits.LATA2 = 0;;
  3775  05A5  0140               	movlb	0	; select bank0
  3776  05A6  1118               	bcf	24,2	;volatile
  3777                           
  3778                           ;main.c: 457:           _delay((unsigned long)((150)*(1000000/4000.0)));
  3779  05A7  3031               	movlw	49
  3780  05A8  00F0               	movwf	??_secuencias_leds4
  3781  05A9  30B2               	movlw	178
  3782  05AA                     u927:
  3783  05AA  0B89               	decfsz	9,f
  3784  05AB  2DAA               	goto	u927
  3785  05AC  0BF0               	decfsz	??_secuencias_leds4,f
  3786  05AD  2DAA               	goto	u927
  3787  05AE  3200               	nop2
  3788  05AF                     l1082:
  3789                           
  3790                           ;main.c: 458:            LATAbits.LATA2 = 1;;
  3791  05AF  0140               	movlb	0	; select bank0
  3792  05B0  1518               	bsf	24,2	;volatile
  3793                           
  3794                           ;main.c: 459:           _delay((unsigned long)((150)*(1000000/4000.0)));
  3795  05B1  3031               	movlw	49
  3796  05B2  00F0               	movwf	??_secuencias_leds4
  3797  05B3  30B2               	movlw	178
  3798  05B4                     u937:
  3799  05B4  0B89               	decfsz	9,f
  3800  05B5  2DB4               	goto	u937
  3801  05B6  0BF0               	decfsz	??_secuencias_leds4,f
  3802  05B7  2DB4               	goto	u937
  3803  05B8  3200               	nop2
  3804  05B9                     l1084:
  3805                           
  3806                           ;main.c: 460:             LATBbits.LATB7 = 1;;
  3807  05B9  0140               	movlb	0	; select bank0
  3808  05BA  1799               	bsf	25,7	;volatile
  3809                           
  3810                           ;main.c: 461:           _delay((unsigned long)((150)*(1000000/4000.0)));
  3811  05BB  3031               	movlw	49
  3812  05BC  00F0               	movwf	??_secuencias_leds4
  3813  05BD  30B2               	movlw	178
  3814  05BE                     u947:
  3815  05BE  0B89               	decfsz	9,f
  3816  05BF  2DBE               	goto	u947
  3817  05C0  0BF0               	decfsz	??_secuencias_leds4,f
  3818  05C1  2DBE               	goto	u947
  3819  05C2  3200               	nop2
  3820  05C3                     l1086:
  3821                           
  3822                           ;main.c: 462:           LATBbits.LATB7 = 0;;
  3823  05C3  0140               	movlb	0	; select bank0
  3824  05C4  1399               	bcf	25,7	;volatile
  3825                           
  3826                           ;main.c: 463:           _delay((unsigned long)((150)*(1000000/4000.0)));
  3827  05C5  3031               	movlw	49
  3828  05C6  00F0               	movwf	??_secuencias_leds4
  3829  05C7  30B2               	movlw	178
  3830  05C8                     u957:
  3831  05C8  0B89               	decfsz	9,f
  3832  05C9  2DC8               	goto	u957
  3833  05CA  0BF0               	decfsz	??_secuencias_leds4,f
  3834  05CB  2DC8               	goto	u957
  3835  05CC  3200               	nop2
  3836  05CD                     l1088:
  3837                           
  3838                           ;main.c: 464:           LATAbits.LATA2 = 0;;
  3839  05CD  0140               	movlb	0	; select bank0
  3840  05CE  1118               	bcf	24,2	;volatile
  3841                           
  3842                           ;main.c: 465:           _delay((unsigned long)((150)*(1000000/4000.0)));
  3843  05CF  3031               	movlw	49
  3844  05D0  00F0               	movwf	??_secuencias_leds4
  3845  05D1  30B2               	movlw	178
  3846  05D2                     u967:
  3847  05D2  0B89               	decfsz	9,f
  3848  05D3  2DD2               	goto	u967
  3849  05D4  0BF0               	decfsz	??_secuencias_leds4,f
  3850  05D5  2DD2               	goto	u967
  3851  05D6  3200               	nop2
  3852                           
  3853                           ;main.c: 467:        }
  3854  05D7  3001               	movlw	1
  3855  05D8  07F1               	addwf	secuencias_leds4@i,f
  3856  05D9  3000               	movlw	0
  3857  05DA  3DF2               	addwfc	secuencias_leds4@i+1,f
  3858  05DB  0872               	movf	secuencias_leds4@i+1,w
  3859  05DC  3A80               	xorlw	128
  3860  05DD  00F0               	movwf	??_secuencias_leds4
  3861  05DE  3080               	movlw	128
  3862  05DF  0270               	subwf	??_secuencias_leds4,w
  3863  05E0  1D03               	skipz
  3864  05E1  2DE4               	goto	u235
  3865  05E2  3006               	movlw	6
  3866  05E3  0271               	subwf	secuencias_leds4@i,w
  3867  05E4                     u235:
  3868  05E4  1C03               	skipc
  3869  05E5  2DE7               	goto	u231
  3870  05E6  2DE8               	goto	u230
  3871  05E7                     u231:
  3872  05E7  2D0F               	goto	l126
  3873  05E8                     u230:
  3874  05E8                     l128:
  3875  05E8  0008               	return
  3876  05E9                     __end_of_secuencias_leds4:
  3877                           
  3878                           	psect	text15
  3879  06E1                     __ptext15:	
  3880 ;; *************** function _secuencias_leds3 *****************
  3881 ;; Defined at:
  3882 ;;		line 334 in file "main.c"
  3883 ;; Parameters:    Size  Location     Type
  3884 ;;		None
  3885 ;; Auto vars:     Size  Location     Type
  3886 ;;  i               2    1[COMMON] int 
  3887 ;; Return value:  Size  Location     Type
  3888 ;;                  1    wreg      void 
  3889 ;; Registers used:
  3890 ;;		wreg
  3891 ;; Tracked objects:
  3892 ;;		On entry : 0/0
  3893 ;;		On exit  : 0/0
  3894 ;;		Unchanged: 0/0
  3895 ;; Data sizes:     COMMON   BANK0   BANK1   BANK2   BANK3   BANK4   BANK5   BANK6
  3896 ;;      Params:         0       0       0       0       0       0       0       0
  3897 ;;      Locals:         2       0       0       0       0       0       0       0
  3898 ;;      Temps:          1       0       0       0       0       0       0       0
  3899 ;;      Totals:         3       0       0       0       0       0       0       0
  3900 ;;Total ram usage:        3 bytes
  3901 ;; Hardware stack levels used: 1
  3902 ;; This function calls:
  3903 ;;		Nothing
  3904 ;; This function is called by:
  3905 ;;		_coctel_1
  3906 ;;		_coctel_2
  3907 ;;		_coctel_3
  3908 ;;		_coctel_4
  3909 ;; This function uses a non-reentrant model
  3910 ;;
  3911                           
  3912                           
  3913                           ;psect for function _secuencias_leds3
  3914  06E1                     _secuencias_leds3:
  3915  06E1                     l976:	
  3916                           ;incstack = 0
  3917                           ; Regs used in _secuencias_leds3: [wreg]
  3918                           
  3919                           
  3920                           ;main.c: 336:        for(int i =1; i<5; i++ ){
  3921  06E1  3001               	movlw	1
  3922  06E2  00F1               	movwf	secuencias_leds3@i
  3923  06E3  3000               	movlw	0
  3924  06E4  00F2               	movwf	secuencias_leds3@i+1
  3925  06E5                     l121:
  3926                           
  3927                           ;main.c: 339:             LATAbits.LATA2 = 1;;
  3928  06E5  0140               	movlb	0	; select bank0
  3929  06E6  1518               	bsf	24,2	;volatile
  3930  06E7                     l980:
  3931                           
  3932                           ;main.c: 340:           _delay((unsigned long)((150)*(1000000/4000.0)));
  3933  06E7  3031               	movlw	49
  3934  06E8  00F0               	movwf	??_secuencias_leds3
  3935  06E9  30B2               	movlw	178
  3936  06EA                     u977:
  3937  06EA  0B89               	decfsz	9,f
  3938  06EB  2EEA               	goto	u977
  3939  06EC  0BF0               	decfsz	??_secuencias_leds3,f
  3940  06ED  2EEA               	goto	u977
  3941  06EE  3200               	nop2
  3942  06EF                     l982:
  3943                           
  3944                           ;main.c: 341:             LATBbits.LATB7 = 1;;
  3945  06EF  0140               	movlb	0	; select bank0
  3946  06F0  1799               	bsf	25,7	;volatile
  3947                           
  3948                           ;main.c: 342:           _delay((unsigned long)((150)*(1000000/4000.0)));
  3949  06F1  3031               	movlw	49
  3950  06F2  00F0               	movwf	??_secuencias_leds3
  3951  06F3  30B2               	movlw	178
  3952  06F4                     u987:
  3953  06F4  0B89               	decfsz	9,f
  3954  06F5  2EF4               	goto	u987
  3955  06F6  0BF0               	decfsz	??_secuencias_leds3,f
  3956  06F7  2EF4               	goto	u987
  3957  06F8  3200               	nop2
  3958  06F9                     l984:
  3959                           
  3960                           ;main.c: 343:           LATBbits.LATB7 = 0;;
  3961  06F9  0140               	movlb	0	; select bank0
  3962  06FA  1399               	bcf	25,7	;volatile
  3963                           
  3964                           ;main.c: 344:           _delay((unsigned long)((150)*(1000000/4000.0)));
  3965  06FB  3031               	movlw	49
  3966  06FC  00F0               	movwf	??_secuencias_leds3
  3967  06FD  30B2               	movlw	178
  3968  06FE                     u997:
  3969  06FE  0B89               	decfsz	9,f
  3970  06FF  2EFE               	goto	u997
  3971  0700  0BF0               	decfsz	??_secuencias_leds3,f
  3972  0701  2EFE               	goto	u997
  3973  0702  3200               	nop2
  3974  0703                     l986:
  3975                           
  3976                           ;main.c: 345:           LATAbits.LATA2 = 0;;
  3977  0703  0140               	movlb	0	; select bank0
  3978  0704  1118               	bcf	24,2	;volatile
  3979                           
  3980                           ;main.c: 346:           _delay((unsigned long)((150)*(1000000/4000.0)));
  3981  0705  3031               	movlw	49
  3982  0706  00F0               	movwf	??_secuencias_leds3
  3983  0707  30B2               	movlw	178
  3984  0708                     u1007:
  3985  0708  0B89               	decfsz	9,f
  3986  0709  2F08               	goto	u1007
  3987  070A  0BF0               	decfsz	??_secuencias_leds3,f
  3988  070B  2F08               	goto	u1007
  3989  070C  3200               	nop2
  3990  070D                     l988:
  3991                           
  3992                           ;main.c: 347:            LATAbits.LATA2 = 1;;
  3993  070D  0140               	movlb	0	; select bank0
  3994  070E  1518               	bsf	24,2	;volatile
  3995                           
  3996                           ;main.c: 348:           _delay((unsigned long)((150)*(1000000/4000.0)));
  3997  070F  3031               	movlw	49
  3998  0710  00F0               	movwf	??_secuencias_leds3
  3999  0711  30B2               	movlw	178
  4000  0712                     u1017:
  4001  0712  0B89               	decfsz	9,f
  4002  0713  2F12               	goto	u1017
  4003  0714  0BF0               	decfsz	??_secuencias_leds3,f
  4004  0715  2F12               	goto	u1017
  4005  0716  3200               	nop2
  4006  0717                     l990:
  4007                           
  4008                           ;main.c: 349:             LATBbits.LATB7 = 1;;
  4009  0717  0140               	movlb	0	; select bank0
  4010  0718  1799               	bsf	25,7	;volatile
  4011                           
  4012                           ;main.c: 350:           _delay((unsigned long)((150)*(1000000/4000.0)));
  4013  0719  3031               	movlw	49
  4014  071A  00F0               	movwf	??_secuencias_leds3
  4015  071B  30B2               	movlw	178
  4016  071C                     u1027:
  4017  071C  0B89               	decfsz	9,f
  4018  071D  2F1C               	goto	u1027
  4019  071E  0BF0               	decfsz	??_secuencias_leds3,f
  4020  071F  2F1C               	goto	u1027
  4021  0720  3200               	nop2
  4022  0721                     l992:
  4023                           
  4024                           ;main.c: 351:           LATBbits.LATB7 = 0;;
  4025  0721  0140               	movlb	0	; select bank0
  4026  0722  1399               	bcf	25,7	;volatile
  4027                           
  4028                           ;main.c: 352:           _delay((unsigned long)((150)*(1000000/4000.0)));
  4029  0723  3031               	movlw	49
  4030  0724  00F0               	movwf	??_secuencias_leds3
  4031  0725  30B2               	movlw	178
  4032  0726                     u1037:
  4033  0726  0B89               	decfsz	9,f
  4034  0727  2F26               	goto	u1037
  4035  0728  0BF0               	decfsz	??_secuencias_leds3,f
  4036  0729  2F26               	goto	u1037
  4037  072A  3200               	nop2
  4038  072B                     l994:
  4039                           
  4040                           ;main.c: 353:           LATAbits.LATA2 = 0;;
  4041  072B  0140               	movlb	0	; select bank0
  4042  072C  1118               	bcf	24,2	;volatile
  4043                           
  4044                           ;main.c: 354:           _delay((unsigned long)((150)*(1000000/4000.0)));
  4045  072D  3031               	movlw	49
  4046  072E  00F0               	movwf	??_secuencias_leds3
  4047  072F  30B2               	movlw	178
  4048  0730                     u1047:
  4049  0730  0B89               	decfsz	9,f
  4050  0731  2F30               	goto	u1047
  4051  0732  0BF0               	decfsz	??_secuencias_leds3,f
  4052  0733  2F30               	goto	u1047
  4053  0734  3200               	nop2
  4054  0735                     l996:
  4055                           
  4056                           ;main.c: 357:              LATBbits.LATB7 = 1;;
  4057  0735  0140               	movlb	0	; select bank0
  4058  0736  1799               	bsf	25,7	;volatile
  4059                           
  4060                           ;main.c: 358:           _delay((unsigned long)((150)*(1000000/4000.0)));
  4061  0737  3031               	movlw	49
  4062  0738  00F0               	movwf	??_secuencias_leds3
  4063  0739  30B2               	movlw	178
  4064  073A                     u1057:
  4065  073A  0B89               	decfsz	9,f
  4066  073B  2F3A               	goto	u1057
  4067  073C  0BF0               	decfsz	??_secuencias_leds3,f
  4068  073D  2F3A               	goto	u1057
  4069  073E  3200               	nop2
  4070  073F                     l998:
  4071                           
  4072                           ;main.c: 359:              LATBbits.LATB7 = 0;;
  4073  073F  0140               	movlb	0	; select bank0
  4074  0740  1399               	bcf	25,7	;volatile
  4075                           
  4076                           ;main.c: 360:           _delay((unsigned long)((150)*(1000000/4000.0)));
  4077  0741  3031               	movlw	49
  4078  0742  00F0               	movwf	??_secuencias_leds3
  4079  0743  30B2               	movlw	178
  4080  0744                     u1067:
  4081  0744  0B89               	decfsz	9,f
  4082  0745  2F44               	goto	u1067
  4083  0746  0BF0               	decfsz	??_secuencias_leds3,f
  4084  0747  2F44               	goto	u1067
  4085  0748  3200               	nop2
  4086  0749                     l1000:
  4087                           
  4088                           ;main.c: 361:               LATBbits.LATB7 = 1;;
  4089  0749  0140               	movlb	0	; select bank0
  4090  074A  1799               	bsf	25,7	;volatile
  4091                           
  4092                           ;main.c: 362:           _delay((unsigned long)((150)*(1000000/4000.0)));
  4093  074B  3031               	movlw	49
  4094  074C  00F0               	movwf	??_secuencias_leds3
  4095  074D  30B2               	movlw	178
  4096  074E                     u1077:
  4097  074E  0B89               	decfsz	9,f
  4098  074F  2F4E               	goto	u1077
  4099  0750  0BF0               	decfsz	??_secuencias_leds3,f
  4100  0751  2F4E               	goto	u1077
  4101  0752  3200               	nop2
  4102  0753                     l1002:
  4103                           
  4104                           ;main.c: 365:              LATAbits.LATA2 = 1;;
  4105  0753  0140               	movlb	0	; select bank0
  4106  0754  1518               	bsf	24,2	;volatile
  4107                           
  4108                           ;main.c: 366:           _delay((unsigned long)((150)*(1000000/4000.0)));
  4109  0755  3031               	movlw	49
  4110  0756  00F0               	movwf	??_secuencias_leds3
  4111  0757  30B2               	movlw	178
  4112  0758                     u1087:
  4113  0758  0B89               	decfsz	9,f
  4114  0759  2F58               	goto	u1087
  4115  075A  0BF0               	decfsz	??_secuencias_leds3,f
  4116  075B  2F58               	goto	u1087
  4117  075C  3200               	nop2
  4118  075D                     l1004:
  4119                           
  4120                           ;main.c: 367:              LATAbits.LATA2 = 0;;
  4121  075D  0140               	movlb	0	; select bank0
  4122  075E  1118               	bcf	24,2	;volatile
  4123                           
  4124                           ;main.c: 368:           _delay((unsigned long)((150)*(1000000/4000.0)));
  4125  075F  3031               	movlw	49
  4126  0760  00F0               	movwf	??_secuencias_leds3
  4127  0761  30B2               	movlw	178
  4128  0762                     u1097:
  4129  0762  0B89               	decfsz	9,f
  4130  0763  2F62               	goto	u1097
  4131  0764  0BF0               	decfsz	??_secuencias_leds3,f
  4132  0765  2F62               	goto	u1097
  4133  0766  3200               	nop2
  4134  0767                     l1006:
  4135                           
  4136                           ;main.c: 369:              LATAbits.LATA2 = 1;;
  4137  0767  0140               	movlb	0	; select bank0
  4138  0768  1518               	bsf	24,2	;volatile
  4139                           
  4140                           ;main.c: 370:           _delay((unsigned long)((150)*(1000000/4000.0)));
  4141  0769  3031               	movlw	49
  4142  076A  00F0               	movwf	??_secuencias_leds3
  4143  076B  30B2               	movlw	178
  4144  076C                     u1107:
  4145  076C  0B89               	decfsz	9,f
  4146  076D  2F6C               	goto	u1107
  4147  076E  0BF0               	decfsz	??_secuencias_leds3,f
  4148  076F  2F6C               	goto	u1107
  4149  0770  3200               	nop2
  4150  0771                     l1008:
  4151                           
  4152                           ;main.c: 373:              LATAbits.LATA2 = 0;;
  4153  0771  0140               	movlb	0	; select bank0
  4154  0772  1118               	bcf	24,2	;volatile
  4155  0773                     l1010:
  4156                           
  4157                           ;main.c: 374:              LATBbits.LATB7 = 0;;
  4158  0773  1399               	bcf	25,7	;volatile
  4159                           
  4160                           ;main.c: 375:           _delay((unsigned long)((150)*(1000000/4000.0)));
  4161  0774  3031               	movlw	49
  4162  0775  00F0               	movwf	??_secuencias_leds3
  4163  0776  30B2               	movlw	178
  4164  0777                     u1117:
  4165  0777  0B89               	decfsz	9,f
  4166  0778  2F77               	goto	u1117
  4167  0779  0BF0               	decfsz	??_secuencias_leds3,f
  4168  077A  2F77               	goto	u1117
  4169  077B  3200               	nop2
  4170  077C                     l1012:
  4171                           
  4172                           ;main.c: 377:               LATAbits.LATA2 = 1;;
  4173  077C  0140               	movlb	0	; select bank0
  4174  077D  1518               	bsf	24,2	;volatile
  4175                           
  4176                           ;main.c: 378:           _delay((unsigned long)((150)*(1000000/4000.0)));
  4177  077E  3031               	movlw	49
  4178  077F  00F0               	movwf	??_secuencias_leds3
  4179  0780  30B2               	movlw	178
  4180  0781                     u1127:
  4181  0781  0B89               	decfsz	9,f
  4182  0782  2F81               	goto	u1127
  4183  0783  0BF0               	decfsz	??_secuencias_leds3,f
  4184  0784  2F81               	goto	u1127
  4185  0785  3200               	nop2
  4186  0786                     l1014:
  4187                           
  4188                           ;main.c: 379:              LATAbits.LATA2 = 0;;
  4189  0786  0140               	movlb	0	; select bank0
  4190  0787  1118               	bcf	24,2	;volatile
  4191                           
  4192                           ;main.c: 380:           _delay((unsigned long)((150)*(1000000/4000.0)));
  4193  0788  3031               	movlw	49
  4194  0789  00F0               	movwf	??_secuencias_leds3
  4195  078A  30B2               	movlw	178
  4196  078B                     u1137:
  4197  078B  0B89               	decfsz	9,f
  4198  078C  2F8B               	goto	u1137
  4199  078D  0BF0               	decfsz	??_secuencias_leds3,f
  4200  078E  2F8B               	goto	u1137
  4201  078F  3200               	nop2
  4202  0790                     l1016:
  4203                           
  4204                           ;main.c: 382:              LATBbits.LATB7 = 1;;
  4205  0790  0140               	movlb	0	; select bank0
  4206  0791  1799               	bsf	25,7	;volatile
  4207                           
  4208                           ;main.c: 383:           _delay((unsigned long)((150)*(1000000/4000.0)));
  4209  0792  3031               	movlw	49
  4210  0793  00F0               	movwf	??_secuencias_leds3
  4211  0794  30B2               	movlw	178
  4212  0795                     u1147:
  4213  0795  0B89               	decfsz	9,f
  4214  0796  2F95               	goto	u1147
  4215  0797  0BF0               	decfsz	??_secuencias_leds3,f
  4216  0798  2F95               	goto	u1147
  4217  0799  3200               	nop2
  4218  079A                     l1018:
  4219                           
  4220                           ;main.c: 384:              LATBbits.LATB7 = 0;;
  4221  079A  0140               	movlb	0	; select bank0
  4222  079B  1399               	bcf	25,7	;volatile
  4223                           
  4224                           ;main.c: 385:           _delay((unsigned long)((150)*(1000000/4000.0)));
  4225  079C  3031               	movlw	49
  4226  079D  00F0               	movwf	??_secuencias_leds3
  4227  079E  30B2               	movlw	178
  4228  079F                     u1157:
  4229  079F  0B89               	decfsz	9,f
  4230  07A0  2F9F               	goto	u1157
  4231  07A1  0BF0               	decfsz	??_secuencias_leds3,f
  4232  07A2  2F9F               	goto	u1157
  4233  07A3  3200               	nop2
  4234  07A4                     l1020:
  4235                           
  4236                           ;main.c: 388:              LATAbits.LATA2 = 0;;
  4237  07A4  0140               	movlb	0	; select bank0
  4238  07A5  1118               	bcf	24,2	;volatile
  4239  07A6                     l1022:
  4240                           
  4241                           ;main.c: 389:              LATBbits.LATB7 = 0;;
  4242  07A6  1399               	bcf	25,7	;volatile
  4243                           
  4244                           ;main.c: 390:           _delay((unsigned long)((200)*(1000000/4000.0)));
  4245  07A7  3041               	movlw	65
  4246  07A8  00F0               	movwf	??_secuencias_leds3
  4247  07A9  30EE               	movlw	238
  4248  07AA                     u1167:
  4249  07AA  0B89               	decfsz	9,f
  4250  07AB  2FAA               	goto	u1167
  4251  07AC  0BF0               	decfsz	??_secuencias_leds3,f
  4252  07AD  2FAA               	goto	u1167
  4253  07AE  3200               	nop2
  4254  07AF                     l1024:
  4255                           
  4256                           ;main.c: 392:              LATAbits.LATA2 = 1;;
  4257  07AF  0140               	movlb	0	; select bank0
  4258  07B0  1518               	bsf	24,2	;volatile
  4259  07B1                     l1026:
  4260                           
  4261                           ;main.c: 393:              LATBbits.LATB7 = 1;;
  4262  07B1  1799               	bsf	25,7	;volatile
  4263                           
  4264                           ;main.c: 394:           _delay((unsigned long)((200)*(1000000/4000.0)));
  4265  07B2  3041               	movlw	65
  4266  07B3  00F0               	movwf	??_secuencias_leds3
  4267  07B4  30EE               	movlw	238
  4268  07B5                     u1177:
  4269  07B5  0B89               	decfsz	9,f
  4270  07B6  2FB5               	goto	u1177
  4271  07B7  0BF0               	decfsz	??_secuencias_leds3,f
  4272  07B8  2FB5               	goto	u1177
  4273  07B9  3200               	nop2
  4274  07BA                     l1028:
  4275                           
  4276                           ;main.c: 397:              LATAbits.LATA2 = 0;;
  4277  07BA  0140               	movlb	0	; select bank0
  4278  07BB  1118               	bcf	24,2	;volatile
  4279  07BC                     l1030:
  4280                           
  4281                           ;main.c: 398:              LATBbits.LATB7 = 0;;
  4282  07BC  1399               	bcf	25,7	;volatile
  4283                           
  4284                           ;main.c: 399:           _delay((unsigned long)((200)*(1000000/4000.0)));
  4285  07BD  3041               	movlw	65
  4286  07BE  00F0               	movwf	??_secuencias_leds3
  4287  07BF  30EE               	movlw	238
  4288  07C0                     u1187:
  4289  07C0  0B89               	decfsz	9,f
  4290  07C1  2FC0               	goto	u1187
  4291  07C2  0BF0               	decfsz	??_secuencias_leds3,f
  4292  07C3  2FC0               	goto	u1187
  4293  07C4  3200               	nop2
  4294  07C5                     l1032:
  4295                           
  4296                           ;main.c: 401:              LATAbits.LATA2 = 1;;
  4297  07C5  0140               	movlb	0	; select bank0
  4298  07C6  1518               	bsf	24,2	;volatile
  4299  07C7                     l1034:
  4300                           
  4301                           ;main.c: 402:              LATBbits.LATB7 = 1;;
  4302  07C7  1799               	bsf	25,7	;volatile
  4303                           
  4304                           ;main.c: 403:           _delay((unsigned long)((200)*(1000000/4000.0)));
  4305  07C8  3041               	movlw	65
  4306  07C9  00F0               	movwf	??_secuencias_leds3
  4307  07CA  30EE               	movlw	238
  4308  07CB                     u1197:
  4309  07CB  0B89               	decfsz	9,f
  4310  07CC  2FCB               	goto	u1197
  4311  07CD  0BF0               	decfsz	??_secuencias_leds3,f
  4312  07CE  2FCB               	goto	u1197
  4313  07CF  3200               	nop2
  4314  07D0                     l1036:
  4315                           
  4316                           ;main.c: 405:              LATAbits.LATA2 = 0;;
  4317  07D0  0140               	movlb	0	; select bank0
  4318  07D1  1118               	bcf	24,2	;volatile
  4319  07D2                     l1038:
  4320                           
  4321                           ;main.c: 406:              LATBbits.LATB7 = 0;;
  4322  07D2  1399               	bcf	25,7	;volatile
  4323                           
  4324                           ;main.c: 407:           _delay((unsigned long)((200)*(1000000/4000.0)));
  4325  07D3  3041               	movlw	65
  4326  07D4  00F0               	movwf	??_secuencias_leds3
  4327  07D5  30EE               	movlw	238
  4328  07D6                     u1207:
  4329  07D6  0B89               	decfsz	9,f
  4330  07D7  2FD6               	goto	u1207
  4331  07D8  0BF0               	decfsz	??_secuencias_leds3,f
  4332  07D9  2FD6               	goto	u1207
  4333  07DA  3200               	nop2
  4334                           
  4335                           ;main.c: 410:          }
  4336  07DB  3001               	movlw	1
  4337  07DC  07F1               	addwf	secuencias_leds3@i,f
  4338  07DD  3000               	movlw	0
  4339  07DE  3DF2               	addwfc	secuencias_leds3@i+1,f
  4340  07DF  0872               	movf	secuencias_leds3@i+1,w
  4341  07E0  3A80               	xorlw	128
  4342  07E1  00F0               	movwf	??_secuencias_leds3
  4343  07E2  3080               	movlw	128
  4344  07E3  0270               	subwf	??_secuencias_leds3,w
  4345  07E4  1D03               	skipz
  4346  07E5  2FE8               	goto	u225
  4347  07E6  3005               	movlw	5
  4348  07E7  0271               	subwf	secuencias_leds3@i,w
  4349  07E8                     u225:
  4350  07E8  1C03               	skipc
  4351  07E9  2FEB               	goto	u221
  4352  07EA  2FEC               	goto	u220
  4353  07EB                     u221:
  4354  07EB  2EE5               	goto	l121
  4355  07EC                     u220:
  4356  07EC                     l123:
  4357  07EC  0008               	return
  4358  07ED                     __end_of_secuencias_leds3:
  4359                           
  4360                           	psect	text16
  4361  0E53                     __ptext16:	
  4362 ;; *************** function _Lcd_Out2 *****************
  4363 ;; Defined at:
  4364 ;;		line 116 in file "./flex_lcd.h"
  4365 ;; Parameters:    Size  Location     Type
  4366 ;;  y               1    wreg     unsigned char 
  4367 ;;  x               1    3[COMMON] unsigned char 
  4368 ;;  buffer          1    4[COMMON] PTR unsigned char 
  4369 ;;		 -> s(20), 
  4370 ;; Auto vars:     Size  Location     Type
  4371 ;;  y               1    7[COMMON] unsigned char 
  4372 ;;  data            1    8[COMMON] unsigned char 
  4373 ;; Return value:  Size  Location     Type
  4374 ;;                  1    wreg      void 
  4375 ;; Registers used:
  4376 ;;		wreg, fsr0l, fsr0h, fsr1l, fsr1h, status,2, status,0, pclath, cstack
  4377 ;; Tracked objects:
  4378 ;;		On entry : 0/0
  4379 ;;		On exit  : 0/0
  4380 ;;		Unchanged: 0/0
  4381 ;; Data sizes:     COMMON   BANK0   BANK1   BANK2   BANK3   BANK4   BANK5   BANK6
  4382 ;;      Params:         2       0       0       0       0       0       0       0
  4383 ;;      Locals:         2       0       0       0       0       0       0       0
  4384 ;;      Temps:          2       0       0       0       0       0       0       0
  4385 ;;      Totals:         6       0       0       0       0       0       0       0
  4386 ;;Total ram usage:        6 bytes
  4387 ;; Hardware stack levels used: 1
  4388 ;; Hardware stack levels required when called: 1
  4389 ;; This function calls:
  4390 ;;		_Lcd_Chr_CP
  4391 ;;		_Lcd_Cmd
  4392 ;; This function is called by:
  4393 ;;		_saludo
  4394 ;;		_despedida
  4395 ;;		_menu
  4396 ;;		_coctel_1
  4397 ;;		_coctel_2
  4398 ;;		_coctel_3
  4399 ;;		_coctel_4
  4400 ;; This function uses a non-reentrant model
  4401 ;;
  4402                           
  4403                           
  4404                           ;psect for function _Lcd_Out2
  4405  0E53                     _Lcd_Out2:
  4406                           
  4407                           ;incstack = 0
  4408                           ; Regs used in _Lcd_Out2: [wreg-fsr1h+status,2+status,0+pclath+cstack]
  4409                           ;Lcd_Out2@y stored from wreg
  4410  0E53  00F7               	movwf	Lcd_Out2@y
  4411  0E54                     l1504:
  4412                           
  4413                           ;./flex_lcd.h: 116: void Lcd_Out2(unsigned char y, unsigned char x, char *buffer);./flex
      +                          _lcd.h: 117: {;./flex_lcd.h: 118: unsigned char data;;./flex_lcd.h: 119: switch (y)
  4414  0E54  2E6D               	goto	l1516
  4415  0E55                     l1506:
  4416  0E55  0873               	movf	Lcd_Out2@x,w
  4417  0E56  3E80               	addlw	128
  4418  0E57  00F5               	movwf	??_Lcd_Out2
  4419  0E58  0875               	movf	??_Lcd_Out2,w
  4420  0E59  00F8               	movwf	Lcd_Out2@data
  4421  0E5A  2E83               	goto	l1518
  4422  0E5B                     l1508:
  4423  0E5B  0873               	movf	Lcd_Out2@x,w
  4424  0E5C  3EC0               	addlw	192
  4425  0E5D  00F5               	movwf	??_Lcd_Out2
  4426  0E5E  0875               	movf	??_Lcd_Out2,w
  4427  0E5F  00F8               	movwf	Lcd_Out2@data
  4428  0E60  2E83               	goto	l1518
  4429  0E61                     l1510:
  4430  0E61  0873               	movf	Lcd_Out2@x,w
  4431  0E62  3E94               	addlw	148
  4432  0E63  00F5               	movwf	??_Lcd_Out2
  4433  0E64  0875               	movf	??_Lcd_Out2,w
  4434  0E65  00F8               	movwf	Lcd_Out2@data
  4435  0E66  2E83               	goto	l1518
  4436  0E67                     l1512:
  4437  0E67  0873               	movf	Lcd_Out2@x,w
  4438  0E68  3ED4               	addlw	212
  4439  0E69  00F5               	movwf	??_Lcd_Out2
  4440  0E6A  0875               	movf	??_Lcd_Out2,w
  4441  0E6B  00F8               	movwf	Lcd_Out2@data
  4442  0E6C  2E83               	goto	l1518
  4443  0E6D                     l1516:
  4444  0E6D  0877               	movf	Lcd_Out2@y,w
  4445  0E6E  00F5               	movwf	??_Lcd_Out2
  4446  0E6F  01F6               	clrf	??_Lcd_Out2+1
  4447                           
  4448                           ; Switch on 2 bytes has been partitioned into a top level switch of size 1, and 1 sub-sw
      +                          itches
  4449                           ; Switch size 1, requested type "simple"
  4450                           ; Number of cases is 1, Range of values is 0 to 0
  4451                           ; switch strategies available:
  4452                           ; Name         Instructions Cycles
  4453                           ; simple_byte            4     3 (average)
  4454                           ; direct_byte            8     6 (fixed)
  4455                           ; jumptable            260     6 (fixed)
  4456                           ;	Chosen strategy is simple_byte
  4457  0E70  0876               	movf	??_Lcd_Out2+1,w
  4458  0E71  3A00               	xorlw	0	; case 0
  4459  0E72  1903               	skipnz
  4460  0E73  2E75               	goto	l1784
  4461  0E74  2E83               	goto	l1518
  4462  0E75                     l1784:
  4463                           
  4464                           ; Switch size 1, requested type "simple"
  4465                           ; Number of cases is 4, Range of values is 1 to 4
  4466                           ; switch strategies available:
  4467                           ; Name         Instructions Cycles
  4468                           ; simple_byte           13     7 (average)
  4469                           ; direct_byte           17     9 (fixed)
  4470                           ; jumptable            263     9 (fixed)
  4471                           ;	Chosen strategy is simple_byte
  4472  0E75  0875               	movf	??_Lcd_Out2,w
  4473  0E76  3A01               	xorlw	1	; case 1
  4474  0E77  1903               	skipnz
  4475  0E78  2E55               	goto	l1506
  4476  0E79  3A03               	xorlw	3	; case 2
  4477  0E7A  1903               	skipnz
  4478  0E7B  2E5B               	goto	l1508
  4479  0E7C  3A01               	xorlw	1	; case 3
  4480  0E7D  1903               	skipnz
  4481  0E7E  2E61               	goto	l1510
  4482  0E7F  3A07               	xorlw	7	; case 4
  4483  0E80  1903               	skipnz
  4484  0E81  2E67               	goto	l1512
  4485  0E82  2E83               	goto	l1518
  4486  0E83                     l1518:
  4487                           
  4488                           ;./flex_lcd.h: 127: Lcd_Cmd(data);
  4489  0E83  0878               	movf	Lcd_Out2@data,w
  4490  0E84  3183  231F  318E   	fcall	_Lcd_Cmd
  4491                           
  4492                           ;./flex_lcd.h: 128: while(*buffer)
  4493  0E87  2E93               	goto	l1524
  4494  0E88                     l1520:
  4495                           
  4496                           ;./flex_lcd.h: 129: {;./flex_lcd.h: 130:     Lcd_Chr_CP(*buffer);
  4497  0E88  0874               	movf	Lcd_Out2@buffer,w
  4498  0E89  0086               	movwf	6
  4499  0E8A  0187               	clrf	7
  4500  0E8B  0801               	movf	1,w
  4501  0E8C  3183  23B1  318E   	fcall	_Lcd_Chr_CP
  4502  0E8F                     l1522:
  4503                           
  4504                           ;./flex_lcd.h: 131:     buffer++;
  4505  0E8F  3001               	movlw	1
  4506  0E90  00F5               	movwf	??_Lcd_Out2
  4507  0E91  0875               	movf	??_Lcd_Out2,w
  4508  0E92  07F4               	addwf	Lcd_Out2@buffer,f
  4509  0E93                     l1524:
  4510                           
  4511                           ;./flex_lcd.h: 128: while(*buffer)
  4512  0E93  0874               	movf	Lcd_Out2@buffer,w
  4513  0E94  0086               	movwf	6
  4514  0E95  0187               	clrf	7
  4515  0E96  0801               	movf	1,w
  4516  0E97  1D03               	btfss	3,2
  4517  0E98  2E9A               	goto	u381
  4518  0E99  2E9B               	goto	u380
  4519  0E9A                     u381:
  4520  0E9A  2E88               	goto	l1520
  4521  0E9B                     u380:
  4522  0E9B                     l85:
  4523  0E9B  0008               	return
  4524  0E9C                     __end_of_Lcd_Out2:
  4525                           
  4526                           	psect	text17
  4527  03B1                     __ptext17:	
  4528 ;; *************** function _Lcd_Chr_CP *****************
  4529 ;; Defined at:
  4530 ;;		line 137 in file "./flex_lcd.h"
  4531 ;; Parameters:    Size  Location     Type
  4532 ;;  data            1    wreg     unsigned char 
  4533 ;; Auto vars:     Size  Location     Type
  4534 ;;  data            1    2[COMMON] unsigned char 
  4535 ;; Return value:  Size  Location     Type
  4536 ;;                  1    wreg      void 
  4537 ;; Registers used:
  4538 ;;		wreg, status,2, status,0
  4539 ;; Tracked objects:
  4540 ;;		On entry : 0/0
  4541 ;;		On exit  : 0/0
  4542 ;;		Unchanged: 0/0
  4543 ;; Data sizes:     COMMON   BANK0   BANK1   BANK2   BANK3   BANK4   BANK5   BANK6
  4544 ;;      Params:         0       0       0       0       0       0       0       0
  4545 ;;      Locals:         1       0       0       0       0       0       0       0
  4546 ;;      Temps:          2       0       0       0       0       0       0       0
  4547 ;;      Totals:         3       0       0       0       0       0       0       0
  4548 ;;Total ram usage:        3 bytes
  4549 ;; Hardware stack levels used: 1
  4550 ;; This function calls:
  4551 ;;		Nothing
  4552 ;; This function is called by:
  4553 ;;		_Lcd_Out2
  4554 ;;		_Lcd_Out
  4555 ;; This function uses a non-reentrant model
  4556 ;;
  4557                           
  4558                           
  4559                           ;psect for function _Lcd_Chr_CP
  4560  03B1                     _Lcd_Chr_CP:
  4561                           
  4562                           ;incstack = 0
  4563                           ; Regs used in _Lcd_Chr_CP: [wreg+status,2+status,0]
  4564                           ;Lcd_Chr_CP@data stored from wreg
  4565  03B1  00F2               	movwf	Lcd_Chr_CP@data
  4566  03B2                     l834:
  4567                           
  4568                           ;./flex_lcd.h: 138: PORTBbits.RB6 = 0; PORTBbits.RB4 = 1;
  4569  03B2  0140               	movlb	0	; select bank0
  4570  03B3  130D               	bcf	13,6	;volatile
  4571  03B4  160D               	bsf	13,4	;volatile
  4572  03B5                     l836:
  4573                           
  4574                           ;./flex_lcd.h: 139: PORTCbits.RC7 = (data & 0b10000000)>>7; PORTCbits.RC6 = (data & 0b01
      +                          000000)>>6;
  4575  03B5  0872               	movf	Lcd_Chr_CP@data,w
  4576  03B6  00F0               	movwf	??_Lcd_Chr_CP
  4577  03B7  3007               	movlw	7
  4578  03B8                     u135:
  4579  03B8  36F0               	lsrf	??_Lcd_Chr_CP,f
  4580  03B9  0B89               	decfsz	9,f
  4581  03BA  2BB8               	goto	u135
  4582  03BB  0870               	movf	??_Lcd_Chr_CP,w
  4583  03BC  3901               	andlw	1
  4584  03BD  00F1               	movwf	??_Lcd_Chr_CP+1
  4585  03BE  0CF1               	rrf	??_Lcd_Chr_CP+1,f
  4586  03BF  0CF1               	rrf	??_Lcd_Chr_CP+1,f
  4587  03C0  080E               	movf	14,w	;volatile
  4588  03C1  0671               	xorwf	??_Lcd_Chr_CP+1,w
  4589  03C2  397F               	andlw	-129
  4590  03C3  0671               	xorwf	??_Lcd_Chr_CP+1,w
  4591  03C4  008E               	movwf	14	;volatile
  4592  03C5  0872               	movf	Lcd_Chr_CP@data,w
  4593  03C6  00F0               	movwf	??_Lcd_Chr_CP
  4594  03C7  3006               	movlw	6
  4595  03C8                     u145:
  4596  03C8  36F0               	lsrf	??_Lcd_Chr_CP,f
  4597  03C9  0B89               	decfsz	9,f
  4598  03CA  2BC8               	goto	u145
  4599  03CB  0870               	movf	??_Lcd_Chr_CP,w
  4600  03CC  3901               	andlw	1
  4601  03CD  00F1               	movwf	??_Lcd_Chr_CP+1
  4602  03CE  0EF1               	swapf	??_Lcd_Chr_CP+1,f
  4603  03CF  0DF1               	rlf	??_Lcd_Chr_CP+1,f
  4604  03D0  0DF1               	rlf	??_Lcd_Chr_CP+1,f
  4605  03D1  080E               	movf	14,w	;volatile
  4606  03D2  0671               	xorwf	??_Lcd_Chr_CP+1,w
  4607  03D3  39BF               	andlw	-65
  4608  03D4  0671               	xorwf	??_Lcd_Chr_CP+1,w
  4609  03D5  008E               	movwf	14	;volatile
  4610                           
  4611                           ;./flex_lcd.h: 140: PORTCbits.RC5 = (data & 0b00100000)>>5; PORTCbits.RC4 = (data & 0b00
      +                          010000)>>4;
  4612  03D6  0872               	movf	Lcd_Chr_CP@data,w
  4613  03D7  00F0               	movwf	??_Lcd_Chr_CP
  4614  03D8  3005               	movlw	5
  4615  03D9                     u155:
  4616  03D9  36F0               	lsrf	??_Lcd_Chr_CP,f
  4617  03DA  0B89               	decfsz	9,f
  4618  03DB  2BD9               	goto	u155
  4619  03DC  0870               	movf	??_Lcd_Chr_CP,w
  4620  03DD  3901               	andlw	1
  4621  03DE  00F1               	movwf	??_Lcd_Chr_CP+1
  4622  03DF  0EF1               	swapf	??_Lcd_Chr_CP+1,f
  4623  03E0  0DF1               	rlf	??_Lcd_Chr_CP+1,f
  4624  03E1  080E               	movf	14,w	;volatile
  4625  03E2  0671               	xorwf	??_Lcd_Chr_CP+1,w
  4626  03E3  39DF               	andlw	-33
  4627  03E4  0671               	xorwf	??_Lcd_Chr_CP+1,w
  4628  03E5  008E               	movwf	14	;volatile
  4629  03E6  0872               	movf	Lcd_Chr_CP@data,w
  4630  03E7  00F0               	movwf	??_Lcd_Chr_CP
  4631  03E8  3004               	movlw	4
  4632  03E9                     u165:
  4633  03E9  36F0               	lsrf	??_Lcd_Chr_CP,f
  4634  03EA  0B89               	decfsz	9,f
  4635  03EB  2BE9               	goto	u165
  4636  03EC  0870               	movf	??_Lcd_Chr_CP,w
  4637  03ED  3901               	andlw	1
  4638  03EE  00F1               	movwf	??_Lcd_Chr_CP+1
  4639  03EF  0EF1               	swapf	??_Lcd_Chr_CP+1,f
  4640  03F0  080E               	movf	14,w	;volatile
  4641  03F1  0671               	xorwf	??_Lcd_Chr_CP+1,w
  4642  03F2  39EF               	andlw	-17
  4643  03F3  0671               	xorwf	??_Lcd_Chr_CP+1,w
  4644  03F4  008E               	movwf	14	;volatile
  4645  03F5                     l838:
  4646                           
  4647                           ;./flex_lcd.h: 141: _delay(10);
  4648  03F5  3003               	movlw	3
  4649  03F6                     u1217:
  4650  03F6  0B89               	decfsz	9,f
  4651  03F7  2BF6               	goto	u1217
  4652  03F8  0000               	nop
  4653  03F9                     l840:
  4654                           
  4655                           ;./flex_lcd.h: 142: PORTBbits.RB6 = 1; _delay((unsigned long)((5)*(1000000/4000000.0)));
      +                           PORTBbits.RB6 = 0;
  4656  03F9  0140               	movlb	0	; select bank0
  4657  03FA  170D               	bsf	13,6	;volatile
  4658  03FB                     l842:
  4659  03FB  0000               	nop
  4660  03FC                     l844:
  4661  03FC  0140               	movlb	0	; select bank0
  4662  03FD  130D               	bcf	13,6	;volatile
  4663  03FE                     l846:
  4664                           
  4665                           ;./flex_lcd.h: 143: PORTCbits.RC7 = (data & 0b00001000)>>3; PORTCbits.RC6 = (data & 0b00
      +                          000100)>>2;
  4666  03FE  0872               	movf	Lcd_Chr_CP@data,w
  4667  03FF  00F0               	movwf	??_Lcd_Chr_CP
  4668  0400  3003               	movlw	3
  4669  0401                     u175:
  4670  0401  36F0               	lsrf	??_Lcd_Chr_CP,f
  4671  0402  0B89               	decfsz	9,f
  4672  0403  2C01               	goto	u175
  4673  0404  0870               	movf	??_Lcd_Chr_CP,w
  4674  0405  3901               	andlw	1
  4675  0406  00F1               	movwf	??_Lcd_Chr_CP+1
  4676  0407  0CF1               	rrf	??_Lcd_Chr_CP+1,f
  4677  0408  0CF1               	rrf	??_Lcd_Chr_CP+1,f
  4678  0409  080E               	movf	14,w	;volatile
  4679  040A  0671               	xorwf	??_Lcd_Chr_CP+1,w
  4680  040B  397F               	andlw	-129
  4681  040C  0671               	xorwf	??_Lcd_Chr_CP+1,w
  4682  040D  008E               	movwf	14	;volatile
  4683  040E                     l848:
  4684  040E  0872               	movf	Lcd_Chr_CP@data,w
  4685  040F  00F0               	movwf	??_Lcd_Chr_CP
  4686  0410  3002               	movlw	2
  4687  0411                     u185:
  4688  0411  36F0               	lsrf	??_Lcd_Chr_CP,f
  4689  0412  0B89               	decfsz	9,f
  4690  0413  2C11               	goto	u185
  4691  0414  0870               	movf	??_Lcd_Chr_CP,w
  4692  0415  3901               	andlw	1
  4693  0416  00F1               	movwf	??_Lcd_Chr_CP+1
  4694  0417  0EF1               	swapf	??_Lcd_Chr_CP+1,f
  4695  0418  0DF1               	rlf	??_Lcd_Chr_CP+1,f
  4696  0419  0DF1               	rlf	??_Lcd_Chr_CP+1,f
  4697  041A  080E               	movf	14,w	;volatile
  4698  041B  0671               	xorwf	??_Lcd_Chr_CP+1,w
  4699  041C  39BF               	andlw	-65
  4700  041D  0671               	xorwf	??_Lcd_Chr_CP+1,w
  4701  041E  008E               	movwf	14	;volatile
  4702  041F                     l850:
  4703                           
  4704                           ;./flex_lcd.h: 144: PORTCbits.RC5 = (data & 0b00000010)>>1; PORTCbits.RC4 = (data & 0b00
      +                          000001);
  4705  041F  3672               	lsrf	Lcd_Chr_CP@data,w
  4706  0420  3901               	andlw	1
  4707  0421  00F0               	movwf	??_Lcd_Chr_CP
  4708  0422  0EF0               	swapf	??_Lcd_Chr_CP,f
  4709  0423  0DF0               	rlf	??_Lcd_Chr_CP,f
  4710  0424  080E               	movf	14,w	;volatile
  4711  0425  0670               	xorwf	??_Lcd_Chr_CP,w
  4712  0426  39DF               	andlw	-33
  4713  0427  0670               	xorwf	??_Lcd_Chr_CP,w
  4714  0428  008E               	movwf	14	;volatile
  4715  0429                     l852:
  4716  0429  0872               	movf	Lcd_Chr_CP@data,w
  4717  042A  3901               	andlw	1
  4718  042B  00F0               	movwf	??_Lcd_Chr_CP
  4719  042C  0EF0               	swapf	??_Lcd_Chr_CP,f
  4720  042D  080E               	movf	14,w	;volatile
  4721  042E  0670               	xorwf	??_Lcd_Chr_CP,w
  4722  042F  39EF               	andlw	-17
  4723  0430  0670               	xorwf	??_Lcd_Chr_CP,w
  4724  0431  008E               	movwf	14	;volatile
  4725  0432                     l854:
  4726                           
  4727                           ;./flex_lcd.h: 145: _delay(10);
  4728  0432  3003               	movlw	3
  4729  0433                     u1227:
  4730  0433  0B89               	decfsz	9,f
  4731  0434  2C33               	goto	u1227
  4732  0435  0000               	nop
  4733  0436                     l856:
  4734                           
  4735                           ;./flex_lcd.h: 146: PORTBbits.RB6 = 1; _delay((unsigned long)((5)*(1000000/4000000.0)));
      +                           PORTBbits.RB6 = 0;
  4736  0436  0140               	movlb	0	; select bank0
  4737  0437  170D               	bsf	13,6	;volatile
  4738  0438                     l858:
  4739  0438  0000               	nop
  4740  0439                     l860:
  4741  0439  0140               	movlb	0	; select bank0
  4742  043A  130D               	bcf	13,6	;volatile
  4743  043B                     l862:
  4744                           
  4745                           ;./flex_lcd.h: 147: _delay((unsigned long)((5)*(1000000/4000000.0))); _delay((unsigned l
      +                          ong)((5500)*(1000000/4000000.0)));
  4746  043B  0000               	nop
  4747  043C                     l864:
  4748  043C  30C4               	movlw	196
  4749  043D                     u1237:
  4750  043D  3200               	nop2
  4751  043E  3200               	nop2
  4752  043F  0B89               	decfsz	9,f
  4753  0440  2C3D               	goto	u1237
  4754  0441  3200               	nop2
  4755  0442  0000               	nop
  4756  0443                     l88:
  4757  0443  0008               	return
  4758  0444                     __end_of_Lcd_Chr_CP:
  4759                           
  4760                           	psect	text18
  4761  0006                     __ptext18:	
  4762 ;; *************** function _PIN_MANAGER_Initialize *****************
  4763 ;; Defined at:
  4764 ;;		line 93 in file "main.c"
  4765 ;; Parameters:    Size  Location     Type
  4766 ;;		None
  4767 ;; Auto vars:     Size  Location     Type
  4768 ;;		None
  4769 ;; Return value:  Size  Location     Type
  4770 ;;                  1    wreg      void 
  4771 ;; Registers used:
  4772 ;;		wreg, status,2
  4773 ;; Tracked objects:
  4774 ;;		On entry : 0/0
  4775 ;;		On exit  : 0/0
  4776 ;;		Unchanged: 0/0
  4777 ;; Data sizes:     COMMON   BANK0   BANK1   BANK2   BANK3   BANK4   BANK5   BANK6
  4778 ;;      Params:         0       0       0       0       0       0       0       0
  4779 ;;      Locals:         0       0       0       0       0       0       0       0
  4780 ;;      Temps:          0       0       0       0       0       0       0       0
  4781 ;;      Totals:         0       0       0       0       0       0       0       0
  4782 ;;Total ram usage:        0 bytes
  4783 ;; Hardware stack levels used: 1
  4784 ;; This function calls:
  4785 ;;		Nothing
  4786 ;; This function is called by:
  4787 ;;		_main
  4788 ;; This function uses a non-reentrant model
  4789 ;;
  4790                           
  4791                           
  4792                           ;psect for function _PIN_MANAGER_Initialize
  4793  0006                     _PIN_MANAGER_Initialize:
  4794  0006                     l1116:	
  4795                           ;incstack = 0
  4796                           ; Regs used in _PIN_MANAGER_Initialize: [wreg+status,2]
  4797                           
  4798                           
  4799                           ;main.c: 95:   LATA = 0x00;
  4800  0006  0140               	movlb	0	; select bank0
  4801  0007  0198               	clrf	24	;volatile
  4802                           
  4803                           ;main.c: 96:   LATB = 0x00;
  4804  0008  0199               	clrf	25	;volatile
  4805                           
  4806                           ;main.c: 97:   LATC = 0x00;
  4807  0009  019A               	clrf	26	;volatile
  4808                           
  4809                           ;main.c: 100:   TRISA = 0b00000000;
  4810  000A  0192               	clrf	18	;volatile
  4811                           
  4812                           ;main.c: 101:   TRISB = 0b00000000;
  4813  000B  0193               	clrf	19	;volatile
  4814  000C                     l1118:
  4815                           
  4816                           ;main.c: 102:   TRISC = 0b00001111;
  4817  000C  300F               	movlw	15
  4818  000D  0094               	movwf	20	;volatile
  4819  000E                     l1120:
  4820                           
  4821                           ;main.c: 105:   ANSELC = 0;
  4822  000E  017E               	movlb	62	; select bank62
  4823  000F  01CE               	clrf	78	;volatile
  4824  0010                     l1122:
  4825                           
  4826                           ;main.c: 107:   ANSELA = 0;
  4827  0010  01B8               	clrf	56	;volatile
  4828  0011                     l1124:
  4829                           
  4830                           ;main.c: 112:   ODCONA = 0x04;
  4831  0011  3004               	movlw	4
  4832  0012  00BA               	movwf	58	;volatile
  4833                           
  4834                           ;main.c: 114:   ODCONC = 0x00;
  4835  0013  01D0               	clrf	80	;volatile
  4836  0014                     l1126:
  4837                           
  4838                           ;main.c: 117:   SLRCONA = 0x37;
  4839  0014  3037               	movlw	55
  4840  0015  00BB               	movwf	59	;volatile
  4841  0016                     l1128:
  4842                           
  4843                           ;main.c: 119:   SLRCONC = 0xFF;
  4844  0016  30FF               	movlw	255
  4845  0017  00D1               	movwf	81	;volatile
  4846  0018                     l1130:
  4847                           
  4848                           ;main.c: 122:   INLVLA = 0x3F;
  4849  0018  303F               	movlw	63
  4850  0019  00BC               	movwf	60	;volatile
  4851  001A                     l1132:
  4852                           
  4853                           ;main.c: 124:   INLVLC = 0xFF;
  4854  001A  30FF               	movlw	255
  4855  001B  00D2               	movwf	82	;volatile
  4856  001C                     l96:
  4857  001C  0008               	return
  4858  001D                     __end_of_PIN_MANAGER_Initialize:
  4859                           
  4860                           	psect	text19
  4861  0DFD                     __ptext19:	
  4862 ;; *************** function _OSCILLATOR_Initialize *****************
  4863 ;; Defined at:
  4864 ;;		line 128 in file "main.c"
  4865 ;; Parameters:    Size  Location     Type
  4866 ;;		None
  4867 ;; Auto vars:     Size  Location     Type
  4868 ;;		None
  4869 ;; Return value:  Size  Location     Type
  4870 ;;                  1    wreg      void 
  4871 ;; Registers used:
  4872 ;;		status,2
  4873 ;; Tracked objects:
  4874 ;;		On entry : 0/0
  4875 ;;		On exit  : 0/0
  4876 ;;		Unchanged: 0/0
  4877 ;; Data sizes:     COMMON   BANK0   BANK1   BANK2   BANK3   BANK4   BANK5   BANK6
  4878 ;;      Params:         0       0       0       0       0       0       0       0
  4879 ;;      Locals:         0       0       0       0       0       0       0       0
  4880 ;;      Temps:          0       0       0       0       0       0       0       0
  4881 ;;      Totals:         0       0       0       0       0       0       0       0
  4882 ;;Total ram usage:        0 bytes
  4883 ;; Hardware stack levels used: 1
  4884 ;; This function calls:
  4885 ;;		Nothing
  4886 ;; This function is called by:
  4887 ;;		_main
  4888 ;; This function uses a non-reentrant model
  4889 ;;
  4890                           
  4891                           
  4892                           ;psect for function _OSCILLATOR_Initialize
  4893  0DFD                     _OSCILLATOR_Initialize:
  4894  0DFD                     l1134:	
  4895                           ;incstack = 0
  4896                           ; Regs used in _OSCILLATOR_Initialize: [status,2]
  4897                           
  4898                           
  4899                           ;main.c: 130:     OSCEN = 0x00;
  4900  0DFD  0151               	movlb	17	; select bank17
  4901  0DFE  0191               	clrf	17	;volatile
  4902                           
  4903                           ;main.c: 131:     OSCFRQ = 0x00;
  4904  0DFF  0193               	clrf	19	;volatile
  4905                           
  4906                           ;main.c: 132:     OSCTUNE = 0x00;
  4907  0E00  0192               	clrf	18	;volatile
  4908  0E01                     l99:
  4909  0E01  0008               	return
  4910  0E02                     __end_of_OSCILLATOR_Initialize:
  4911                           
  4912                           	psect	text20
  4913  0293                     __ptext20:	
  4914 ;; *************** function _Lcd_Init *****************
  4915 ;; Defined at:
  4916 ;;		line 53 in file "./flex_lcd.h"
  4917 ;; Parameters:    Size  Location     Type
  4918 ;;		None
  4919 ;; Auto vars:     Size  Location     Type
  4920 ;;  data            1    4[COMMON] unsigned char 
  4921 ;; Return value:  Size  Location     Type
  4922 ;;                  1    wreg      void 
  4923 ;; Registers used:
  4924 ;;		wreg, status,2, status,0, pclath, cstack
  4925 ;; Tracked objects:
  4926 ;;		On entry : 0/0
  4927 ;;		On exit  : 0/0
  4928 ;;		Unchanged: 0/0
  4929 ;; Data sizes:     COMMON   BANK0   BANK1   BANK2   BANK3   BANK4   BANK5   BANK6
  4930 ;;      Params:         0       0       0       0       0       0       0       0
  4931 ;;      Locals:         1       0       0       0       0       0       0       0
  4932 ;;      Temps:          1       0       0       0       0       0       0       0
  4933 ;;      Totals:         2       0       0       0       0       0       0       0
  4934 ;;Total ram usage:        2 bytes
  4935 ;; Hardware stack levels used: 1
  4936 ;; Hardware stack levels required when called: 1
  4937 ;; This function calls:
  4938 ;;		_Lcd_Cmd
  4939 ;; This function is called by:
  4940 ;;		_main
  4941 ;; This function uses a non-reentrant model
  4942 ;;
  4943                           
  4944                           
  4945                           ;psect for function _Lcd_Init
  4946  0293                     _Lcd_Init:
  4947  0293                     l1090:	
  4948                           ;incstack = 0
  4949                           ; Regs used in _Lcd_Init: [wreg+status,2+status,0+pclath+cstack]
  4950                           
  4951                           
  4952                           ;./flex_lcd.h: 54: unsigned char data;;./flex_lcd.h: 55: TRISCbits.TRISC7 = 0;
  4953  0293  0140               	movlb	0	; select bank0
  4954  0294  1394               	bcf	20,7	;volatile
  4955                           
  4956                           ;./flex_lcd.h: 56: TRISCbits.TRISC6 = 0;
  4957  0295  1314               	bcf	20,6	;volatile
  4958                           
  4959                           ;./flex_lcd.h: 57: TRISCbits.TRISC5 = 0;
  4960  0296  1294               	bcf	20,5	;volatile
  4961                           
  4962                           ;./flex_lcd.h: 58: TRISCbits.TRISC4 = 0;
  4963  0297  1214               	bcf	20,4	;volatile
  4964                           
  4965                           ;./flex_lcd.h: 59: TRISBbits.TRISB6 = 0;
  4966  0298  1313               	bcf	19,6	;volatile
  4967                           
  4968                           ;./flex_lcd.h: 60: TRISBbits.TRISB4 = 0;
  4969  0299  1213               	bcf	19,4	;volatile
  4970                           
  4971                           ;./flex_lcd.h: 61: PORTCbits.RC7 = 0;
  4972  029A  138E               	bcf	14,7	;volatile
  4973                           
  4974                           ;./flex_lcd.h: 62: PORTCbits.RC6 = 0;
  4975  029B  130E               	bcf	14,6	;volatile
  4976                           
  4977                           ;./flex_lcd.h: 63: PORTCbits.RC5 = 0;
  4978  029C  128E               	bcf	14,5	;volatile
  4979                           
  4980                           ;./flex_lcd.h: 64: PORTCbits.RC4 = 0;
  4981  029D  120E               	bcf	14,4	;volatile
  4982                           
  4983                           ;./flex_lcd.h: 65: PORTBbits.RB6 = 0;
  4984  029E  130D               	bcf	13,6	;volatile
  4985                           
  4986                           ;./flex_lcd.h: 66: PORTBbits.RB4 = 0;
  4987  029F  120D               	bcf	13,4	;volatile
  4988  02A0                     l1092:
  4989                           
  4990                           ;./flex_lcd.h: 67: _delay((unsigned long)((5500)*(1000000/4000000.0)));
  4991  02A0  30C4               	movlw	196
  4992  02A1                     u1247:
  4993  02A1  3200               	nop2
  4994  02A2  3200               	nop2
  4995  02A3  0B89               	decfsz	9,f
  4996  02A4  2AA1               	goto	u1247
  4997  02A5  3200               	nop2
  4998  02A6  0000               	nop
  4999                           
  5000                           ;./flex_lcd.h: 68: _delay((unsigned long)((5500)*(1000000/4000000.0)));
  5001  02A7  30C4               	movlw	196
  5002  02A8                     u1257:
  5003  02A8  3200               	nop2
  5004  02A9  3200               	nop2
  5005  02AA  0B89               	decfsz	9,f
  5006  02AB  2AA8               	goto	u1257
  5007  02AC  3200               	nop2
  5008  02AD  0000               	nop
  5009                           
  5010                           ;./flex_lcd.h: 69: _delay((unsigned long)((5500)*(1000000/4000000.0)));
  5011  02AE  30C4               	movlw	196
  5012  02AF                     u1267:
  5013  02AF  3200               	nop2
  5014  02B0  3200               	nop2
  5015  02B1  0B89               	decfsz	9,f
  5016  02B2  2AAF               	goto	u1267
  5017  02B3  3200               	nop2
  5018  02B4  0000               	nop
  5019                           
  5020                           ;./flex_lcd.h: 70: _delay((unsigned long)((5500)*(1000000/4000000.0)));
  5021  02B5  30C4               	movlw	196
  5022  02B6                     u1277:
  5023  02B6  3200               	nop2
  5024  02B7  3200               	nop2
  5025  02B8  0B89               	decfsz	9,f
  5026  02B9  2AB6               	goto	u1277
  5027  02BA  3200               	nop2
  5028  02BB  0000               	nop
  5029                           
  5030                           ;./flex_lcd.h: 71: _delay((unsigned long)((5500)*(1000000/4000000.0)));
  5031  02BC  30C4               	movlw	196
  5032  02BD                     u1287:
  5033  02BD  3200               	nop2
  5034  02BE  3200               	nop2
  5035  02BF  0B89               	decfsz	9,f
  5036  02C0  2ABD               	goto	u1287
  5037  02C1  3200               	nop2
  5038  02C2  0000               	nop
  5039                           
  5040                           ;./flex_lcd.h: 72: _delay((unsigned long)((5500)*(1000000/4000000.0)));
  5041  02C3  30C4               	movlw	196
  5042  02C4                     u1297:
  5043  02C4  3200               	nop2
  5044  02C5  3200               	nop2
  5045  02C6  0B89               	decfsz	9,f
  5046  02C7  2AC4               	goto	u1297
  5047  02C8  3200               	nop2
  5048  02C9  0000               	nop
  5049  02CA                     l1094:
  5050                           
  5051                           ;./flex_lcd.h: 73: for(data = 1; data < 4; data ++)
  5052  02CA  01F4               	clrf	Lcd_Init@data
  5053  02CB  0AF4               	incf	Lcd_Init@data,f
  5054  02CC                     l57:
  5055                           
  5056                           ;./flex_lcd.h: 74: {;./flex_lcd.h: 75:     PORTCbits.RC7 = 0; PORTCbits.RC6 = 0; PORTCbi
      +                          ts.RC5 = 1; PORTCbits.RC4 = 1; PORTBbits.RB6 = 0;
  5057  02CC  0140               	movlb	0	; select bank0
  5058  02CD  138E               	bcf	14,7	;volatile
  5059  02CE  130E               	bcf	14,6	;volatile
  5060  02CF  168E               	bsf	14,5	;volatile
  5061  02D0  160E               	bsf	14,4	;volatile
  5062  02D1  130D               	bcf	13,6	;volatile
  5063                           
  5064                           ;./flex_lcd.h: 76:     PORTBbits.RB4 = 0; PORTCbits.RC7 = 0; PORTCbits.RC6 = 0; PORTCbit
      +                          s.RC5 = 1; PORTCbits.RC4 = 1;
  5065  02D2  120D               	bcf	13,4	;volatile
  5066  02D3  138E               	bcf	14,7	;volatile
  5067  02D4  130E               	bcf	14,6	;volatile
  5068  02D5  168E               	bsf	14,5	;volatile
  5069  02D6  160E               	bsf	14,4	;volatile
  5070                           
  5071                           ;./flex_lcd.h: 77:     PORTBbits.RB6 = 1; PORTBbits.RB4 = 0;
  5072  02D7  170D               	bsf	13,6	;volatile
  5073  02D8  120D               	bcf	13,4	;volatile
  5074                           
  5075                           ;./flex_lcd.h: 78:     _delay((unsigned long)((5)*(1000000/4000000.0)));
  5076  02D9  0000               	nop
  5077                           
  5078                           ;./flex_lcd.h: 79:     PORTCbits.RC7 = 0; PORTCbits.RC6 = 0; PORTCbits.RC5 = 1; PORTCbit
      +                          s.RC4 = 1; PORTBbits.RB6 = 0;
  5079  02DA  0140               	movlb	0	; select bank0
  5080  02DB  138E               	bcf	14,7	;volatile
  5081  02DC  130E               	bcf	14,6	;volatile
  5082  02DD  168E               	bsf	14,5	;volatile
  5083  02DE  160E               	bsf	14,4	;volatile
  5084  02DF  130D               	bcf	13,6	;volatile
  5085                           
  5086                           ;./flex_lcd.h: 80:     PORTBbits.RB4 = 0;
  5087  02E0  120D               	bcf	13,4	;volatile
  5088  02E1                     l1098:
  5089                           
  5090                           ;./flex_lcd.h: 81:     _delay((unsigned long)((5500)*(1000000/4000000.0)));
  5091  02E1  30C4               	movlw	196
  5092  02E2                     u1307:
  5093  02E2  3200               	nop2
  5094  02E3  3200               	nop2
  5095  02E4  0B89               	decfsz	9,f
  5096  02E5  2AE2               	goto	u1307
  5097  02E6  3200               	nop2
  5098  02E7  0000               	nop
  5099  02E8                     l1100:
  5100                           
  5101                           ;./flex_lcd.h: 82: }
  5102  02E8  3001               	movlw	1
  5103  02E9  00F3               	movwf	??_Lcd_Init
  5104  02EA  0873               	movf	??_Lcd_Init,w
  5105  02EB  07F4               	addwf	Lcd_Init@data,f
  5106  02EC                     l1102:
  5107  02EC  3004               	movlw	4
  5108  02ED  0274               	subwf	Lcd_Init@data,w
  5109  02EE  1C03               	skipc
  5110  02EF  2AF1               	goto	u241
  5111  02F0  2AF2               	goto	u240
  5112  02F1                     u241:
  5113  02F1  2ACC               	goto	l57
  5114  02F2                     u240:
  5115  02F2                     l58:
  5116                           
  5117                           ;./flex_lcd.h: 83: PORTCbits.RC7 = 0; PORTCbits.RC6 = 0; PORTCbits.RC5 = 1; PORTCbits.RC
      +                          4 = 0; PORTBbits.RB6 = 0; PORTBbits.RB4 = 0;
  5118  02F2  0140               	movlb	0	; select bank0
  5119  02F3  138E               	bcf	14,7	;volatile
  5120  02F4  130E               	bcf	14,6	;volatile
  5121  02F5  168E               	bsf	14,5	;volatile
  5122  02F6  120E               	bcf	14,4	;volatile
  5123  02F7  130D               	bcf	13,6	;volatile
  5124  02F8  120D               	bcf	13,4	;volatile
  5125                           
  5126                           ;./flex_lcd.h: 84: PORTCbits.RC7 = 0; PORTCbits.RC6 = 0; PORTCbits.RC5 = 1; PORTCbits.RC
      +                          4 = 0; PORTBbits.RB6 = 1; PORTBbits.RB4 = 0;
  5127  02F9  138E               	bcf	14,7	;volatile
  5128  02FA  130E               	bcf	14,6	;volatile
  5129  02FB  168E               	bsf	14,5	;volatile
  5130  02FC  120E               	bcf	14,4	;volatile
  5131  02FD  170D               	bsf	13,6	;volatile
  5132  02FE  120D               	bcf	13,4	;volatile
  5133                           
  5134                           ;./flex_lcd.h: 85: _delay((unsigned long)((5)*(1000000/4000000.0)));
  5135  02FF  0000               	nop
  5136                           
  5137                           ;./flex_lcd.h: 86: PORTCbits.RC7 = 0; PORTCbits.RC6 = 0; PORTCbits.RC5 = 1; PORTCbits.RC
      +                          4 = 0; PORTBbits.RB6 = 0; PORTBbits.RB4 = 0;
  5138  0300  0140               	movlb	0	; select bank0
  5139  0301  138E               	bcf	14,7	;volatile
  5140  0302  130E               	bcf	14,6	;volatile
  5141  0303  168E               	bsf	14,5	;volatile
  5142  0304  120E               	bcf	14,4	;volatile
  5143  0305  130D               	bcf	13,6	;volatile
  5144  0306  120D               	bcf	13,4	;volatile
  5145  0307                     l1104:
  5146                           
  5147                           ;./flex_lcd.h: 87: _delay((unsigned long)((5500)*(1000000/4000000.0)));
  5148  0307  30C4               	movlw	196
  5149  0308                     u1317:
  5150  0308  3200               	nop2
  5151  0309  3200               	nop2
  5152  030A  0B89               	decfsz	9,f
  5153  030B  2B08               	goto	u1317
  5154  030C  3200               	nop2
  5155  030D  0000               	nop
  5156  030E                     l1106:
  5157  030E  3028               	movlw	40
  5158  030F  3183  231F  3182   	fcall	_Lcd_Cmd
  5159  0312                     l1108:
  5160  0312  3010               	movlw	16
  5161  0313  3183  231F  3182   	fcall	_Lcd_Cmd
  5162  0316                     l1110:
  5163  0316  3001               	movlw	1
  5164  0317  3183  231F  3182   	fcall	_Lcd_Cmd
  5165  031A                     l1112:
  5166  031A                     l1114:
  5167  031A  300F               	movlw	15
  5168  031B  3183  231F  3182   	fcall	_Lcd_Cmd
  5169  031E                     l59:
  5170  031E  0008               	return
  5171  031F                     __end_of_Lcd_Init:
  5172                           
  5173                           	psect	text21
  5174  031F                     __ptext21:	
  5175 ;; *************** function _Lcd_Cmd *****************
  5176 ;; Defined at:
  5177 ;;		line 151 in file "./flex_lcd.h"
  5178 ;; Parameters:    Size  Location     Type
  5179 ;;  data            1    wreg     unsigned char 
  5180 ;; Auto vars:     Size  Location     Type
  5181 ;;  data            1    2[COMMON] unsigned char 
  5182 ;; Return value:  Size  Location     Type
  5183 ;;                  1    wreg      void 
  5184 ;; Registers used:
  5185 ;;		wreg, status,2, status,0
  5186 ;; Tracked objects:
  5187 ;;		On entry : 0/0
  5188 ;;		On exit  : 0/0
  5189 ;;		Unchanged: 0/0
  5190 ;; Data sizes:     COMMON   BANK0   BANK1   BANK2   BANK3   BANK4   BANK5   BANK6
  5191 ;;      Params:         0       0       0       0       0       0       0       0
  5192 ;;      Locals:         1       0       0       0       0       0       0       0
  5193 ;;      Temps:          2       0       0       0       0       0       0       0
  5194 ;;      Totals:         3       0       0       0       0       0       0       0
  5195 ;;Total ram usage:        3 bytes
  5196 ;; Hardware stack levels used: 1
  5197 ;; This function calls:
  5198 ;;		Nothing
  5199 ;; This function is called by:
  5200 ;;		_Lcd_Init
  5201 ;;		_Lcd_Out2
  5202 ;;		_saludo
  5203 ;;		_despedida
  5204 ;;		_menu
  5205 ;;		_coctel_1
  5206 ;;		_coctel_2
  5207 ;;		_coctel_3
  5208 ;;		_coctel_4
  5209 ;;		_main
  5210 ;;		_Lcd_Out
  5211 ;; This function uses a non-reentrant model
  5212 ;;
  5213                           
  5214                           
  5215                           ;psect for function _Lcd_Cmd
  5216  031F                     _Lcd_Cmd:
  5217                           
  5218                           ;incstack = 0
  5219                           ; Regs used in _Lcd_Cmd: [wreg+status,2+status,0]
  5220                           ;Lcd_Cmd@data stored from wreg
  5221  031F  00F2               	movwf	Lcd_Cmd@data
  5222  0320                     l804:
  5223                           
  5224                           ;./flex_lcd.h: 152: PORTBbits.RB6 = 0; PORTBbits.RB4 = 0;
  5225  0320  0140               	movlb	0	; select bank0
  5226  0321  130D               	bcf	13,6	;volatile
  5227  0322  120D               	bcf	13,4	;volatile
  5228  0323                     l806:
  5229                           
  5230                           ;./flex_lcd.h: 153: PORTCbits.RC7 = (data & 0b10000000)>>7; PORTCbits.RC6 = (data & 0b01
      +                          000000)>>6;
  5231  0323  0872               	movf	Lcd_Cmd@data,w
  5232  0324  00F0               	movwf	??_Lcd_Cmd
  5233  0325  3007               	movlw	7
  5234  0326                     u75:
  5235  0326  36F0               	lsrf	??_Lcd_Cmd,f
  5236  0327  0B89               	decfsz	9,f
  5237  0328  2B26               	goto	u75
  5238  0329  0870               	movf	??_Lcd_Cmd,w
  5239  032A  3901               	andlw	1
  5240  032B  00F1               	movwf	??_Lcd_Cmd+1
  5241  032C  0CF1               	rrf	??_Lcd_Cmd+1,f
  5242  032D  0CF1               	rrf	??_Lcd_Cmd+1,f
  5243  032E  080E               	movf	14,w	;volatile
  5244  032F  0671               	xorwf	??_Lcd_Cmd+1,w
  5245  0330  397F               	andlw	-129
  5246  0331  0671               	xorwf	??_Lcd_Cmd+1,w
  5247  0332  008E               	movwf	14	;volatile
  5248  0333  0872               	movf	Lcd_Cmd@data,w
  5249  0334  00F0               	movwf	??_Lcd_Cmd
  5250  0335  3006               	movlw	6
  5251  0336                     u85:
  5252  0336  36F0               	lsrf	??_Lcd_Cmd,f
  5253  0337  0B89               	decfsz	9,f
  5254  0338  2B36               	goto	u85
  5255  0339  0870               	movf	??_Lcd_Cmd,w
  5256  033A  3901               	andlw	1
  5257  033B  00F1               	movwf	??_Lcd_Cmd+1
  5258  033C  0EF1               	swapf	??_Lcd_Cmd+1,f
  5259  033D  0DF1               	rlf	??_Lcd_Cmd+1,f
  5260  033E  0DF1               	rlf	??_Lcd_Cmd+1,f
  5261  033F  080E               	movf	14,w	;volatile
  5262  0340  0671               	xorwf	??_Lcd_Cmd+1,w
  5263  0341  39BF               	andlw	-65
  5264  0342  0671               	xorwf	??_Lcd_Cmd+1,w
  5265  0343  008E               	movwf	14	;volatile
  5266                           
  5267                           ;./flex_lcd.h: 154: PORTCbits.RC5 = (data & 0b00100000)>>5; PORTCbits.RC4 = (data & 0b00
      +                          010000)>>4;
  5268  0344  0872               	movf	Lcd_Cmd@data,w
  5269  0345  00F0               	movwf	??_Lcd_Cmd
  5270  0346  3005               	movlw	5
  5271  0347                     u95:
  5272  0347  36F0               	lsrf	??_Lcd_Cmd,f
  5273  0348  0B89               	decfsz	9,f
  5274  0349  2B47               	goto	u95
  5275  034A  0870               	movf	??_Lcd_Cmd,w
  5276  034B  3901               	andlw	1
  5277  034C  00F1               	movwf	??_Lcd_Cmd+1
  5278  034D  0EF1               	swapf	??_Lcd_Cmd+1,f
  5279  034E  0DF1               	rlf	??_Lcd_Cmd+1,f
  5280  034F  080E               	movf	14,w	;volatile
  5281  0350  0671               	xorwf	??_Lcd_Cmd+1,w
  5282  0351  39DF               	andlw	-33
  5283  0352  0671               	xorwf	??_Lcd_Cmd+1,w
  5284  0353  008E               	movwf	14	;volatile
  5285  0354  0872               	movf	Lcd_Cmd@data,w
  5286  0355  00F0               	movwf	??_Lcd_Cmd
  5287  0356  3004               	movlw	4
  5288  0357                     u105:
  5289  0357  36F0               	lsrf	??_Lcd_Cmd,f
  5290  0358  0B89               	decfsz	9,f
  5291  0359  2B57               	goto	u105
  5292  035A  0870               	movf	??_Lcd_Cmd,w
  5293  035B  3901               	andlw	1
  5294  035C  00F1               	movwf	??_Lcd_Cmd+1
  5295  035D  0EF1               	swapf	??_Lcd_Cmd+1,f
  5296  035E  080E               	movf	14,w	;volatile
  5297  035F  0671               	xorwf	??_Lcd_Cmd+1,w
  5298  0360  39EF               	andlw	-17
  5299  0361  0671               	xorwf	??_Lcd_Cmd+1,w
  5300  0362  008E               	movwf	14	;volatile
  5301  0363                     l808:
  5302                           
  5303                           ;./flex_lcd.h: 155: _delay(10);
  5304  0363  3003               	movlw	3
  5305  0364                     u1327:
  5306  0364  0B89               	decfsz	9,f
  5307  0365  2B64               	goto	u1327
  5308  0366  0000               	nop
  5309  0367                     l810:
  5310                           
  5311                           ;./flex_lcd.h: 156: PORTBbits.RB6 = 1; _delay((unsigned long)((5)*(1000000/4000000.0)));
      +                           PORTBbits.RB6 = 0;
  5312  0367  0140               	movlb	0	; select bank0
  5313  0368  170D               	bsf	13,6	;volatile
  5314  0369                     l812:
  5315  0369  0000               	nop
  5316  036A                     l814:
  5317  036A  0140               	movlb	0	; select bank0
  5318  036B  130D               	bcf	13,6	;volatile
  5319  036C                     l816:
  5320                           
  5321                           ;./flex_lcd.h: 157: PORTCbits.RC7 = (data & 0b00001000)>>3; PORTCbits.RC6 = (data & 0b00
      +                          000100)>>2;
  5322  036C  0872               	movf	Lcd_Cmd@data,w
  5323  036D  00F0               	movwf	??_Lcd_Cmd
  5324  036E  3003               	movlw	3
  5325  036F                     u115:
  5326  036F  36F0               	lsrf	??_Lcd_Cmd,f
  5327  0370  0B89               	decfsz	9,f
  5328  0371  2B6F               	goto	u115
  5329  0372  0870               	movf	??_Lcd_Cmd,w
  5330  0373  3901               	andlw	1
  5331  0374  00F1               	movwf	??_Lcd_Cmd+1
  5332  0375  0CF1               	rrf	??_Lcd_Cmd+1,f
  5333  0376  0CF1               	rrf	??_Lcd_Cmd+1,f
  5334  0377  080E               	movf	14,w	;volatile
  5335  0378  0671               	xorwf	??_Lcd_Cmd+1,w
  5336  0379  397F               	andlw	-129
  5337  037A  0671               	xorwf	??_Lcd_Cmd+1,w
  5338  037B  008E               	movwf	14	;volatile
  5339  037C                     l818:
  5340  037C  0872               	movf	Lcd_Cmd@data,w
  5341  037D  00F0               	movwf	??_Lcd_Cmd
  5342  037E  3002               	movlw	2
  5343  037F                     u125:
  5344  037F  36F0               	lsrf	??_Lcd_Cmd,f
  5345  0380  0B89               	decfsz	9,f
  5346  0381  2B7F               	goto	u125
  5347  0382  0870               	movf	??_Lcd_Cmd,w
  5348  0383  3901               	andlw	1
  5349  0384  00F1               	movwf	??_Lcd_Cmd+1
  5350  0385  0EF1               	swapf	??_Lcd_Cmd+1,f
  5351  0386  0DF1               	rlf	??_Lcd_Cmd+1,f
  5352  0387  0DF1               	rlf	??_Lcd_Cmd+1,f
  5353  0388  080E               	movf	14,w	;volatile
  5354  0389  0671               	xorwf	??_Lcd_Cmd+1,w
  5355  038A  39BF               	andlw	-65
  5356  038B  0671               	xorwf	??_Lcd_Cmd+1,w
  5357  038C  008E               	movwf	14	;volatile
  5358  038D                     l820:
  5359                           
  5360                           ;./flex_lcd.h: 158: PORTCbits.RC5 = (data & 0b00000010)>>1; PORTCbits.RC4 = (data & 0b00
      +                          000001);
  5361  038D  3672               	lsrf	Lcd_Cmd@data,w
  5362  038E  3901               	andlw	1
  5363  038F  00F0               	movwf	??_Lcd_Cmd
  5364  0390  0EF0               	swapf	??_Lcd_Cmd,f
  5365  0391  0DF0               	rlf	??_Lcd_Cmd,f
  5366  0392  080E               	movf	14,w	;volatile
  5367  0393  0670               	xorwf	??_Lcd_Cmd,w
  5368  0394  39DF               	andlw	-33
  5369  0395  0670               	xorwf	??_Lcd_Cmd,w
  5370  0396  008E               	movwf	14	;volatile
  5371  0397                     l822:
  5372  0397  0872               	movf	Lcd_Cmd@data,w
  5373  0398  3901               	andlw	1
  5374  0399  00F0               	movwf	??_Lcd_Cmd
  5375  039A  0EF0               	swapf	??_Lcd_Cmd,f
  5376  039B  080E               	movf	14,w	;volatile
  5377  039C  0670               	xorwf	??_Lcd_Cmd,w
  5378  039D  39EF               	andlw	-17
  5379  039E  0670               	xorwf	??_Lcd_Cmd,w
  5380  039F  008E               	movwf	14	;volatile
  5381  03A0                     l824:
  5382                           
  5383                           ;./flex_lcd.h: 159: _delay(10);
  5384  03A0  3003               	movlw	3
  5385  03A1                     u1337:
  5386  03A1  0B89               	decfsz	9,f
  5387  03A2  2BA1               	goto	u1337
  5388  03A3  0000               	nop
  5389  03A4                     l826:
  5390                           
  5391                           ;./flex_lcd.h: 160: PORTBbits.RB6 = 1; _delay((unsigned long)((5)*(1000000/4000000.0)));
      +                           PORTBbits.RB6 = 0;
  5392  03A4  0140               	movlb	0	; select bank0
  5393  03A5  170D               	bsf	13,6	;volatile
  5394  03A6                     l828:
  5395  03A6  0000               	nop
  5396  03A7                     l830:
  5397  03A7  0140               	movlb	0	; select bank0
  5398  03A8  130D               	bcf	13,6	;volatile
  5399  03A9                     l832:
  5400                           
  5401                           ;./flex_lcd.h: 161: _delay((unsigned long)((5500)*(1000000/4000000.0)));
  5402  03A9  30C4               	movlw	196
  5403  03AA                     u1347:
  5404  03AA  3200               	nop2
  5405  03AB  3200               	nop2
  5406  03AC  0B89               	decfsz	9,f
  5407  03AD  2BAA               	goto	u1347
  5408  03AE  3200               	nop2
  5409  03AF  0000               	nop
  5410  03B0                     l91:
  5411  03B0  0008               	return
  5412  03B1                     __end_of_Lcd_Cmd:
  5413  007E                     btemp	set	126	;btemp
  5414  007E                     wtemp0	set	126
  5415                           
  5416                           	psect	config
  5417                           
  5418                           ;Config register CONFIG1 @ 0x8007
  5419                           ;	External Oscillator Mode Selection bits
  5420                           ;	FEXTOSC = OFF, Oscillator not enabled
  5421                           ;	Power-up Default Value for COSC bits
  5422                           ;	RSTOSC = HFINTOSC_1MHZ, HFINTOSC (1 MHz)
  5423                           ;	Clock Out Enable bit
  5424                           ;	CLKOUTEN = OFF, CLKOUT function is disabled; I/O function on RA4
  5425                           ;	VDD Range Analog Calibration Selection bit
  5426                           ;	VDDAR = HI, Internal analog systems are calibrated for operation between VDD = 2.3V - 
      +                          5.5V
  5427  8007                     	org	32775
  5428  8007  3FED               	dw	16365
  5429                           
  5430                           ;Config register CONFIG2 @ 0x8008
  5431                           ;	Master Clear Enable bit
  5432                           ;	MCLRE = EXTMCLR, If LVP = 0, MCLR pin is MCLR; If LVP = 1, RA3 pin function is MCLR
  5433                           ;	Power-up Timer Selection bits
  5434                           ;	PWRTS = PWRT_OFF, PWRT is disabled
  5435                           ;	WDT Operating Mode bits
  5436                           ;	WDTE = OFF, WDT disabled; SEN is ignored
  5437                           ;	Brown-out Reset Enable bits
  5438                           ;	BOREN = ON, Brown-out Reset Enabled, SBOREN bit is ignored
  5439                           ;	Brown-out Reset Voltage Selection bit
  5440                           ;	BORV = LO, Brown-out Reset Voltage (VBOR) set to 1.9V
  5441                           ;	PPSLOCKED One-Way Set Enable bit
  5442                           ;	PPS1WAY = ON, The PPSLOCKED bit can be cleared and set only once in software
  5443                           ;	Stack Overflow/Underflow Reset Enable bit
  5444                           ;	STVREN = ON, Stack Overflow or Underflow will cause a reset
  5445  8008                     	org	32776
  5446  8008  3FE7               	dw	16359
  5447                           
  5448                           ;Config register CONFIG4 @ 0x800A
  5449                           ;	Boot Block Size Selection bits
  5450                           ;	BBSIZE = BB512, 512 words boot block size
  5451                           ;	Boot Block Enable bit
  5452                           ;	BBEN = OFF, Boot Block is disabled
  5453                           ;	SAF Enable bit
  5454                           ;	SAFEN = OFF, SAF is disabled
  5455                           ;	Application Block Write Protection bit
  5456                           ;	WRTAPP = OFF, Application Block is not write-protected
  5457                           ;	Boot Block Write Protection bit
  5458                           ;	WRTB = OFF, Boot Block is not write-protected
  5459                           ;	Configuration Registers Write Protection bit
  5460                           ;	WRTC = OFF, Configuration Registers are not write-protected
  5461                           ;	Storage Area Flash (SAF) Write Protection bit
  5462                           ;	WRTSAF = OFF, SAF is not write-protected
  5463                           ;	Low Voltage Programming Enable bit
  5464                           ;	LVP = ON, Low Voltage programming enabled. MCLR/Vpp pin function is MCLR. MCLRE Config
      +                          uration bit is ignored.
  5465  800A                     	org	32778
  5466  800A  3FFF               	dw	16383
  5467                           
  5468                           ;Config register CONFIG5 @ 0x800B
  5469                           ;	User Program Flash Memory Code Protection bit
  5470                           ;	CP = OFF, User Program Flash Memory code protection is disabled
  5471  800B                     	org	32779
  5472  800B  3FFF               	dw	16383

Data Sizes:
    Strings     218
    Constant    0
    Data        0
    BSS         60
    Persistent  32
    Stack       0

Auto Spaces:
    Space          Size  Autos    Used
    COMMON           14     14      14
    BANK0            80     22      50
    BANK1            80      0      32
    BANK2            80      0       0
    BANK3            80      0       0
    BANK4            80      0       0
    BANK5            80      0       0
    BANK6            16      0       0

Pointer List with Targets:

    vfpfcnvrt@ap	PTR PTR void  size(1) Largest target is 1
		 -> sprintf@ap(BANK0[1]), 

    fputc@fp.buffer	PTR unsigned char  size(1) Largest target is 20
		 -> s(BANK0[20]), 

    fputc@fp	PTR struct _IO_FILE size(1) Largest target is 6
		 -> sprintf@f(BANK0[5]), 

    vfprintf@ap	PTR PTR void  size(1) Largest target is 1
		 -> sprintf@ap(BANK0[1]), 

    vfprintf@fp	PTR struct _IO_FILE size(1) Largest target is 6
		 -> sprintf@f(BANK0[5]), 

    vfprintf@fmt	PTR const unsigned char  size(2) Largest target is 21
		 -> STR_32(CODE[21]), STR_31(CODE[14]), STR_30(CODE[11]), STR_29(CODE[21]), 
		 -> STR_28(CODE[21]), STR_27(CODE[13]), STR_26(CODE[11]), STR_25(CODE[21]), 
		 -> STR_24(CODE[21]), STR_23(CODE[16]), STR_22(CODE[11]), STR_21(CODE[21]), 
		 -> STR_20(CODE[21]), STR_19(CODE[15]), STR_18(CODE[11]), STR_17(CODE[21]), 
		 -> STR_16(CODE[18]), STR_15(CODE[17]), STR_14(CODE[20]), STR_13(CODE[19]), 
		 -> STR_12(CODE[21]), STR_11(CODE[17]), STR_10(CODE[8]), STR_9(CODE[21]), 
		 -> STR_8(CODE[21]), STR_7(CODE[9]), STR_6(CODE[5]), STR_5(CODE[21]), 
		 -> STR_4(CODE[21]), STR_3(CODE[9]), STR_2(CODE[15]), STR_1(CODE[21]), 

    vfprintf@cfmt	PTR unsigned char  size(2) Largest target is 21
		 -> STR_32(CODE[21]), STR_31(CODE[14]), STR_30(CODE[11]), STR_29(CODE[21]), 
		 -> STR_28(CODE[21]), STR_27(CODE[13]), STR_26(CODE[11]), STR_25(CODE[21]), 
		 -> STR_24(CODE[21]), STR_23(CODE[16]), STR_22(CODE[11]), STR_21(CODE[21]), 
		 -> STR_20(CODE[21]), STR_19(CODE[15]), STR_18(CODE[11]), STR_17(CODE[21]), 
		 -> STR_16(CODE[18]), STR_15(CODE[17]), STR_14(CODE[20]), STR_13(CODE[19]), 
		 -> STR_12(CODE[21]), STR_11(CODE[17]), STR_10(CODE[8]), STR_9(CODE[21]), 
		 -> STR_8(CODE[21]), STR_7(CODE[9]), STR_6(CODE[5]), STR_5(CODE[21]), 
		 -> STR_4(CODE[21]), STR_3(CODE[9]), STR_2(CODE[15]), STR_1(CODE[21]), 

    vfpfcnvrt@fp	PTR struct _IO_FILE size(1) Largest target is 6
		 -> sprintf@f(BANK0[5]), 

    vfpfcnvrt@fmt	PTR PTR unsigned char  size(1) Largest target is 2
		 -> vfprintf@cfmt(BANK0[2]), 

    sprintf@fmt	PTR const unsigned char  size(2) Largest target is 21
		 -> STR_32(CODE[21]), STR_31(CODE[14]), STR_30(CODE[11]), STR_29(CODE[21]), 
		 -> STR_28(CODE[21]), STR_27(CODE[13]), STR_26(CODE[11]), STR_25(CODE[21]), 
		 -> STR_24(CODE[21]), STR_23(CODE[16]), STR_22(CODE[11]), STR_21(CODE[21]), 
		 -> STR_20(CODE[21]), STR_19(CODE[15]), STR_18(CODE[11]), STR_17(CODE[21]), 
		 -> STR_16(CODE[18]), STR_15(CODE[17]), STR_14(CODE[20]), STR_13(CODE[19]), 
		 -> STR_12(CODE[21]), STR_11(CODE[17]), STR_10(CODE[8]), STR_9(CODE[21]), 
		 -> STR_8(CODE[21]), STR_7(CODE[9]), STR_6(CODE[5]), STR_5(CODE[21]), 
		 -> STR_4(CODE[21]), STR_3(CODE[9]), STR_2(CODE[15]), STR_1(CODE[21]), 

    sprintf@s	PTR unsigned char  size(1) Largest target is 20
		 -> s(BANK0[20]), 

    sprintf@ap	PTR void [1] size(1) Largest target is 2
		 -> ?_sprintf(BANK0[2]), 

    S599_IO_FILE$buffer	PTR unsigned char  size(1) Largest target is 20
		 -> s(BANK0[20]), 

    f.buffer	PTR unsigned char  size(1) Largest target is 20
		 -> s(BANK0[20]), 

    Lcd_Out2@buffer	PTR unsigned char  size(1) Largest target is 20
		 -> s(BANK0[20]), 


Critical Paths under _main in COMMON

    _sprintf->_vfprintf
    _vfprintf->_vfpfcnvrt
    _vfpfcnvrt->_fputc
    _Lcd_Out2->_Lcd_Chr_CP
    _Lcd_Out2->_Lcd_Cmd
    _Lcd_Init->_Lcd_Cmd

Critical Paths under _main in BANK0

    _main->_coctel_1
    _main->_coctel_2
    _main->_coctel_3
    _main->_coctel_4
    _main->_despedida
    _main->_menu
    _main->_saludo
    _saludo->_sprintf
    _menu->_sprintf
    _despedida->_sprintf
    _coctel_4->_sprintf
    _coctel_3->_sprintf
    _coctel_2->_sprintf
    _coctel_1->_sprintf
    _sprintf->_vfprintf
    _vfprintf->_vfpfcnvrt

Critical Paths under _main in BANK1

    None.

Critical Paths under _main in BANK2

    None.

Critical Paths under _main in BANK3

    None.

Critical Paths under _main in BANK4

    None.

Critical Paths under _main in BANK5

    None.

Critical Paths under _main in BANK6

    None.

Call Graph Tables:

 ---------------------------------------------------------------------------------
 (Depth) Function   	        Calls       Base Space   Used Autos Params    Refs
 ---------------------------------------------------------------------------------
 (0) _main                                                 0     0      0   74504
                            _Lcd_Cmd
                           _Lcd_Init
              _OSCILLATOR_Initialize
             _PIN_MANAGER_Initialize
                           _coctel_1
                           _coctel_2
                           _coctel_3
                           _coctel_4
                          _despedida
                               _menu
                             _saludo
 ---------------------------------------------------------------------------------
 (1) _saludo                                               2     2      0   10562
                                             20 BANK0      2     2      0
                            _Lcd_Cmd
                           _Lcd_Out2
                            _sprintf
 ---------------------------------------------------------------------------------
 (1) _menu                                                 2     2      0   10562
                                             20 BANK0      2     2      0
                            _Lcd_Cmd
                           _Lcd_Out2
                            _sprintf
 ---------------------------------------------------------------------------------
 (1) _despedida                                            2     2      0   10562
                                             20 BANK0      2     2      0
                            _Lcd_Cmd
                           _Lcd_Out2
                            _sprintf
 ---------------------------------------------------------------------------------
 (1) _coctel_4                                             2     2      0   10622
                                             20 BANK0      2     2      0
                            _Lcd_Cmd
                           _Lcd_Out2
                   _secuencias_leds3
                   _secuencias_leds4
                            _sprintf
 ---------------------------------------------------------------------------------
 (1) _coctel_3                                             2     2      0   10622
                                             20 BANK0      2     2      0
                            _Lcd_Cmd
                           _Lcd_Out2
                   _secuencias_leds3
                   _secuencias_leds4
                            _sprintf
 ---------------------------------------------------------------------------------
 (1) _coctel_2                                             2     2      0   10622
                                             20 BANK0      2     2      0
                            _Lcd_Cmd
                           _Lcd_Out2
                    _secuencias_leds
                   _secuencias_leds3
                            _sprintf
 ---------------------------------------------------------------------------------
 (2) _secuencias_leds                                      3     3      0      30
                                              0 COMMON     3     3      0
 ---------------------------------------------------------------------------------
 (1) _coctel_1                                             2     2      0   10622
                                             20 BANK0      2     2      0
                            _Lcd_Cmd
                           _Lcd_Out2
                   _secuencias_leds3
                   _secuencias_leds4
                            _sprintf
 ---------------------------------------------------------------------------------
 (2) _sprintf                                             12    10      2    5157
                                             10 BANK0     10     8      2
                           _vfprintf
 ---------------------------------------------------------------------------------
 (3) _vfprintf                                             8     5      3    1472
                                             11 COMMON     3     0      3
                                              5 BANK0      5     5      0
                          _vfpfcnvrt
 ---------------------------------------------------------------------------------
 (4) _vfpfcnvrt                                           40    38      2    1165
                                              8 COMMON     3     1      2
                                              0 BANK0      5     5      0
                              _fputc
 ---------------------------------------------------------------------------------
 (5) _fputc                                                8     5      3     782
                                              0 COMMON     8     5      3
                              _putch
 ---------------------------------------------------------------------------------
 (6) _putch                                                1     1      0       0
 ---------------------------------------------------------------------------------
 (2) _secuencias_leds4                                     3     3      0      30
                                              0 COMMON     3     3      0
 ---------------------------------------------------------------------------------
 (2) _secuencias_leds3                                     3     3      0      30
                                              0 COMMON     3     3      0
 ---------------------------------------------------------------------------------
 (2) _Lcd_Out2                                             6     4      2    5285
                                              3 COMMON     6     4      2
                         _Lcd_Chr_CP
                            _Lcd_Cmd
 ---------------------------------------------------------------------------------
 (3) _Lcd_Chr_CP                                           3     3      0     120
                                              0 COMMON     3     3      0
 ---------------------------------------------------------------------------------
 (1) _PIN_MANAGER_Initialize                               0     0      0       0
 ---------------------------------------------------------------------------------
 (1) _OSCILLATOR_Initialize                                0     0      0       0
 ---------------------------------------------------------------------------------
 (1) _Lcd_Init                                             2     2      0     210
                                              3 COMMON     2     2      0
                            _Lcd_Cmd
 ---------------------------------------------------------------------------------
 (3) _Lcd_Cmd                                              3     3      0     120
                                              0 COMMON     3     3      0
 ---------------------------------------------------------------------------------
 Estimated maximum stack depth 6
 ---------------------------------------------------------------------------------

 Call Graph Graphs:

 _main (ROOT)
   _Lcd_Cmd
   _Lcd_Init
     _Lcd_Cmd
   _OSCILLATOR_Initialize
   _PIN_MANAGER_Initialize
   _coctel_1
     _Lcd_Cmd
     _Lcd_Out2
       _Lcd_Chr_CP
       _Lcd_Cmd
     _secuencias_leds3
     _secuencias_leds4
     _sprintf
       _vfprintf
         _vfpfcnvrt
           _fputc
             _putch
   _coctel_2
     _Lcd_Cmd
     _Lcd_Out2
     _secuencias_leds
     _secuencias_leds3
     _sprintf
   _coctel_3
     _Lcd_Cmd
     _Lcd_Out2
     _secuencias_leds3
     _secuencias_leds4
     _sprintf
   _coctel_4
     _Lcd_Cmd
     _Lcd_Out2
     _secuencias_leds3
     _secuencias_leds4
     _sprintf
   _despedida
     _Lcd_Cmd
     _Lcd_Out2
     _sprintf
   _menu
     _Lcd_Cmd
     _Lcd_Out2
     _sprintf
   _saludo
     _Lcd_Cmd
     _Lcd_Out2
     _sprintf

 Address spaces:
Name               Size   Autos  Total    Cost      Usage
BIGRAM             1F0      0       0       0        0.0%
NULL                 0      0       0       0        0.0%
CODE                 0      0       0       0        0.0%
BITCOMMON            E      0       0       1        0.0%
BITSFR0              0      0       0       1        0.0%
SFR0                 0      0       0       1        0.0%
COMMON               E      E       E       2      100.0%
BITSFR1              0      0       0       2        0.0%
SFR1                 0      0       0       2        0.0%
BITSFR2              0      0       0       3        0.0%
SFR2                 0      0       0       3        0.0%
STACK                0      0       0       3        0.0%
BITSFR3              0      0       0       4        0.0%
SFR3                 0      0       0       4        0.0%
ABS                  0      0      60       4        0.0%
BITBANK0            50      0       0       5        0.0%
BITSFR4              0      0       0       5        0.0%
SFR4                 0      0       0       5        0.0%
BANK0               50     16      32       6       62.5%
BITSFR5              0      0       0       6        0.0%
SFR5                 0      0       0       6        0.0%
BITBANK1            50      0       0       7        0.0%
BITSFR6              0      0       0       7        0.0%
SFR6                 0      0       0       7        0.0%
BANK1               50      0      20       8       40.0%
BITSFR7              0      0       0       8        0.0%
SFR7                 0      0       0       8        0.0%
BITBANK2            50      0       0       9        0.0%
BITSFR8              0      0       0       9        0.0%
SFR8                 0      0       0       9        0.0%
BANK2               50      0       0      10        0.0%
BITSFR9              0      0       0      10        0.0%
SFR9                 0      0       0      10        0.0%
BITBANK3            50      0       0      11        0.0%
BITSFR10             0      0       0      11        0.0%
SFR10                0      0       0      11        0.0%
BANK3               50      0       0      12        0.0%
BITSFR11             0      0       0      12        0.0%
SFR11                0      0       0      12        0.0%
BITBANK4            50      0       0      13        0.0%
BITSFR12             0      0       0      13        0.0%
SFR12                0      0       0      13        0.0%
BANK4               50      0       0      14        0.0%
BITSFR13             0      0       0      14        0.0%
SFR13                0      0       0      14        0.0%
BITBANK5            50      0       0      15        0.0%
BITSFR14             0      0       0      15        0.0%
SFR14                0      0       0      15        0.0%
BANK5               50      0       0      16        0.0%
BITSFR15             0      0       0      16        0.0%
SFR15                0      0       0      16        0.0%
BITBANK6            10      0       0      17        0.0%
BITSFR16             0      0       0      17        0.0%
SFR16                0      0       0      17        0.0%
BANK6               10      0       0      18        0.0%
BITSFR17             0      0       0      18        0.0%
SFR17                0      0       0      18        0.0%
BITSFR18             0      0       0      19        0.0%
SFR18                0      0       0      19        0.0%
DATA                 0      0      60      19        0.0%
BITSFR19             0      0       0      20        0.0%
SFR19                0      0       0      20        0.0%
BITSFR20             0      0       0      21        0.0%
SFR20                0      0       0      21        0.0%
BITSFR21             0      0       0      22        0.0%
SFR21                0      0       0      22        0.0%
BITSFR22             0      0       0      23        0.0%
SFR22                0      0       0      23        0.0%
BITSFR23             0      0       0      24        0.0%
SFR23                0      0       0      24        0.0%
BITSFR24             0      0       0      25        0.0%
SFR24                0      0       0      25        0.0%
BITSFR25             0      0       0      26        0.0%
SFR25                0      0       0      26        0.0%
BITSFR26             0      0       0      27        0.0%
SFR26                0      0       0      27        0.0%
BITSFR27             0      0       0      28        0.0%
SFR27                0      0       0      28        0.0%
BITSFR28             0      0       0      29        0.0%
SFR28                0      0       0      29        0.0%
BITSFR29             0      0       0      30        0.0%
SFR29                0      0       0      30        0.0%
BITSFR30             0      0       0      31        0.0%
SFR30                0      0       0      31        0.0%
BITSFR31             0      0       0      32        0.0%
SFR31                0      0       0      32        0.0%
BITSFR32             0      0       0      33        0.0%
SFR32                0      0       0      33        0.0%
BITSFR33             0      0       0      34        0.0%
SFR33                0      0       0      34        0.0%
BITSFR34             0      0       0      35        0.0%
SFR34                0      0       0      35        0.0%
BITSFR35             0      0       0      36        0.0%
SFR35                0      0       0      36        0.0%
BITSFR36             0      0       0      37        0.0%
SFR36                0      0       0      37        0.0%
BITSFR37             0      0       0      38        0.0%
SFR37                0      0       0      38        0.0%
BITSFR38             0      0       0      39        0.0%
SFR38                0      0       0      39        0.0%
BITSFR39             0      0       0      40        0.0%
SFR39                0      0       0      40        0.0%
BITSFR40             0      0       0      41        0.0%
SFR40                0      0       0      41        0.0%
BITSFR41             0      0       0      42        0.0%
SFR41                0      0       0      42        0.0%
BITSFR42             0      0       0      43        0.0%
SFR42                0      0       0      43        0.0%
BITSFR43             0      0       0      44        0.0%
SFR43                0      0       0      44        0.0%
BITSFR44             0      0       0      45        0.0%
SFR44                0      0       0      45        0.0%
BITSFR45             0      0       0      46        0.0%
SFR45                0      0       0      46        0.0%
BITSFR46             0      0       0      47        0.0%
SFR46                0      0       0      47        0.0%
BITSFR47             0      0       0      48        0.0%
SFR47                0      0       0      48        0.0%
BITSFR48             0      0       0      49        0.0%
SFR48                0      0       0      49        0.0%
BITSFR49             0      0       0      50        0.0%
SFR49                0      0       0      50        0.0%
BITSFR50             0      0       0      51        0.0%
SFR50                0      0       0      51        0.0%
BITSFR51             0      0       0      52        0.0%
SFR51                0      0       0      52        0.0%
BITSFR52             0      0       0      53        0.0%
SFR52                0      0       0      53        0.0%
BITSFR53             0      0       0      54        0.0%
SFR53                0      0       0      54        0.0%
BITSFR54             0      0       0      55        0.0%
SFR54                0      0       0      55        0.0%
BITSFR55             0      0       0      56        0.0%
SFR55                0      0       0      56        0.0%
BITSFR56             0      0       0      57        0.0%
SFR56                0      0       0      57        0.0%
BITSFR57             0      0       0      58        0.0%
SFR57                0      0       0      58        0.0%
BITSFR58             0      0       0      59        0.0%
SFR58                0      0       0      59        0.0%
BITSFR59             0      0       0      60        0.0%
SFR59                0      0       0      60        0.0%
BITSFR60             0      0       0      61        0.0%
SFR60                0      0       0      61        0.0%
BITSFR61             0      0       0      62        0.0%
SFR61                0      0       0      62        0.0%
BITSFR62             0      0       0      63        0.0%
SFR62                0      0       0      63        0.0%
BITSFR63             0      0       0      64        0.0%
SFR63                0      0       0      64        0.0%


Microchip Technology PIC Macro Assembler V2.32 build 20210201212658 
Symbol Table                                                                                   Sun May 23 16:37:37 2021

                              _s 0028                               l57 02CC                               l58 02F2  
                             l91 03B0                               l59 031E                               l85 0E9B  
                             l96 001C                               l88 0443                               l99 0E01  
                             u75 0326                               u85 0336                               u95 0347  
                            l102 050A                              l111 05ED                              l121 06E5  
                            l113 06E0                              l105 0FFF                              l123 07EC  
                            l131 0115                              l140 0292                              l108 0F9B  
                            l126 050F                              l134 0194                              l150 0F2D  
                            l128 05E8                              l137 0213                              l146 0F11  
                            l147 0F3B                              l148 0F1F                              l810 0367  
                            l820 038D                              l812 0369                              l804 0320  
                            l725 0E52                              l830 03A7                              l822 0397  
                            l814 036A                              l806 0323                              l719 0096  
                            l832 03A9                              l824 03A0                              l816 036C  
                            l808 0363                              l840 03F9                              l920 05EF  
                            l737 0EEA                              l826 03A4                              l818 037C  
                            l850 041F                              l842 03FB                              l834 03B2  
                            l930 061F                              l922 05F7                              l828 03A6  
                            l860 0439                              l852 0429                              l844 03FC  
                            l836 03B5                              l748 0005                              l940 0651  
                            l932 0629                              l924 0601                              l916 05E9  
                            l862 043B                              l854 0432                              l846 03FE  
                            l838 03F5                              l686 0E2A                              l950 067A  
                            l942 065B                              l934 0633                              l926 060B  
                            l864 043C                              l856 0436                              l848 040E  
                            l960 06A3                              l952 0684                              l944 0665  
                            l936 063D                              l928 0615                              l858 0438  
                            l970 06BB                              l962 06A5                              l954 068E  
                            l946 0667                              l938 0647                              l980 06E7  
                            l972 06C4                              l964 06AE                              l956 0698  
                            l948 0670                              l990 0717                              l982 06EF  
                            l974 06C6                              l966 06B0                              l958 069A  
                            l992 0721                              l984 06F9                              l976 06E1  
                            l968 06B9                              l994 072B                              l986 0703  
                            l996 0735                              l988 070D                              l998 073F  
                            u105 0357                              u210 06E0                              u115 036F  
                            u211 06DF                              u220 07EC                              u125 037F  
                            u221 07EB                              u230 05E8                              u310 0EA1  
                            u135 03B8                              u231 05E7                              u311 0EA0  
                            u215 06DC                              u240 02F2                              u320 0EA6  
                            u400 0F15                              u241 02F1                              u145 03C8  
                            u225 07E8                              u321 0EA5                              u401 0F14  
                            u330 0EB5                              u410 0F23                              u155 03D9  
                            u235 05E4                              u331 0EB4                              u411 0F22  
                            u340 0ED2                              u420 0F31                              u165 03E9  
                            u341 0ED1                              u421 0F30                              u350 0030  
                            u175 0401                              u351 002F                              u360 0051  
                            u185 0411                              u345 0ECE                              u361 0050  
                            u370 0E4E                              u371 0E4D                              u507 020C  
                            u380 0E9B                              u381 0E9A                              u517 0179  
                            u437 04A0                              u390 0F07                              u607 0638  
                            u527 018D                              u447 0503                              u391 0F06  
                            u617 0642                              u537 05F2                              u457 0F94  
                            u707 069E                              u627 064C                              u547 05FC  
                            u467 0FF8                              u717 06A9                              u637 0656  
                            u557 0606                              u477 0277                              u807 0533  
                            u727 06B4                              u647 0660                              u567 0610  
                            u487 028B                              u817 053C                              u737 06BF  
                            u657 066B                              u577 061A                              u497 01F8  
                            u907 0596                              u827 0546                              u747 06CA  
                            u667 0675                              u587 0624                              u917 05A0  
                            u837 0550                              u757 00FA                              u677 067F  
                            u597 062E                              u927 05AA                              u847 055A  
                            u767 010E                              u687 0689                              u937 05B4  
                            u857 0564                              u777 0515                              u697 0693  
                            u947 05BE                              u867 056E                              u787 051F  
                            u957 05C8                              u877 0578                              u797 0529  
                            u967 05D2                              u887 0582                              u977 06EA  
                            u897 058C                              u987 06F4                              u997 06FE  
                            wreg 0009                             l1000 0749                             l1010 0773  
                           l1002 0753                             l1100 02E8                             l1020 07A4  
                           l1012 077C                             l1004 075D                             l1110 0316  
                           l1102 02EC                             l1030 07BC                             l1022 07A6  
                           l1014 0786                             l1006 0767                             l1112 031A  
                           l1104 0307                             l1120 000E                             l1032 07C5  
                           l1024 07AF                             l1016 0790                             l1008 0771  
                           l1040 050B                             l1114 031A                             l1106 030E  
                           l1130 0018                             l1122 0010                             l1034 07C7  
                           l1026 07B1                             l1018 079A                             l1050 0523  
                           l1108 0312                             l1132 001A                             l1124 0011  
                           l1116 0006                             l1036 07D0                             l1028 07BA  
                           l1060 0541                             l1052 0525                             l1044 0512  
                           l1134 0DFD                             l1126 0014                             l1118 000C  
                           l1038 07D2                             l1070 0573                             l1062 054B  
                           l1054 052D                             l1046 0519                             l1128 0016  
                           l1080 05A5                             l1072 057D                             l1064 0555  
                           l1056 052F                             l1048 051B                             l1090 0293  
                           l1082 05AF                             l1074 0587                             l1066 055F  
                           l1058 0537                             l1092 02A0                             l1084 05B9  
                           l1076 0591                             l1068 0569                             l1500 0E4E  
                           l1094 02CA                             l1510 0E61                             l1086 05C3  
                           l1078 059B                             l1520 0E88                             l1512 0E67  
                           l1504 0E54                             l1088 05CD                             l1600 0F3E  
                           l1098 02E1                             l1522 0E8F                             l1506 0E55  
                           l1450 0EAB                             l1530 0E0A                             l1610 0F68  
                           l1602 0F42                             l1524 0E93                             l1508 0E5B  
                           l1516 0E6D                             l1452 0EB5                             l1444 0E9C  
                           l1460 001E                             l1532 0E12                             l1620 0097  
                           l1700 01F0                             l1612 0F71                             l1604 0F4B  
                           l1518 0E83                             l1454 0ED2                             l1446 0EA1  
                           l1470 0051                             l1462 0030                             l1534 0E14  
                           l1630 00C4                             l1622 009B                             l1702 01F2  
                           l1710 0214                             l1614 0F7B                             l1606 0F55  
                           l1550 0464                             l1542 0444                             l1456 0EE2  
                           l1448 0EA6                             l1480 0071                             l1472 0059  
                           l1464 0038                             l1536 0E16                             l1640 00F2  
                           l1632 00CD                             l1624 00A4                             l1704 01FF  
                           l1720 0241                             l1712 0218                             l1616 0F84  
                           l1608 0F5E                             l1560 049A                             l1552 0471  
                           l1544 0448                             l1474 0064                             l1466 003C  
                           l1538 0E22                             l1642 00F4                             l1634 00DA  
                           l1626 00AE                             l1650 0116                             l1706 0201  
                           l1730 026F                             l1722 024A                             l1714 0221  
                           l1618 0F8E                             l1570 04C7                             l1562 04A7  
                           l1554 047A                             l1546 0451                             l1468 0040  
                           l1484 0074                             l1492 0E2D                             l1644 0101  
                           l1636 00E3                             l1628 00B7                             l1660 0143  
                           l1652 011A                             l1708 0204                             l1732 0271  
                           l1724 0257                             l1716 022B                             l1580 0F9C  
                           l1572 04D4                             l1564 04AB                             l1556 0487  
                           l1548 045B                             l1740 0EEB                             l1486 008D  
                           l1478 0069                             l1494 0E31                             l1646 0103  
                           l1638 00ED                             l1670 0171                             l1662 014C  
                           l1654 0123                             l1734 027E                             l1726 0260  
                           l1718 0234                             l1590 0FC9                             l1582 0FA0  
                           l1574 04DD                             l1566 04B4                             l1558 0490  
                           l1750 0EFC                             l1742 0EEE                             l1496 0E34  
                           l1648 0106                             l1672 0173                             l1664 0159  
                           l1656 012D                             l1680 0195                             l1736 0280  
                           l1728 026A                             l1592 0FD2                             l1584 0FA9  
                           l1576 04EA                             l1568 04BE                             l1760 0F23  
                           l1752 0EFF                             l1744 0EF1                             l1498 0E45  
                           l1674 0180                             l1666 0162                             l1658 0136  
                           l1690 01C2                             l1682 0199                             l1738 0283  
                           l1594 0FDF                             l1586 0FB3                             l1578 04F3  
                           l1762 0F31                             l1754 0F02                             l1746 0EF4  
                           l1676 0182                             l1668 016C                             l1692 01CB  
                           l1684 01A2                             l1596 0FE8                             l1588 0FBC  
                           l1756 0F07                             l1748 0EF8                             l1678 0185  
                           l1694 01D8                             l1686 01AC                             l1598 0FF2  
                           l1758 0F15                             l1784 0E75                             l1696 01E1  
                           l1688 01B5                             l1698 01EB                             STR_1 0800  
                           STR_2 0880                             STR_3 08C4                             STR_4 0800  
                           STR_5 0800                             STR_6 08D5                             STR_7 08C4  
                           STR_8 0800                             STR_9 0800                             u1007 0708  
                           u1017 0712                             u1107 076C                             u1027 071C  
                           u1117 0777                             u1037 0726                             u1207 07D6  
                           u1127 0781                             u1047 0730                             u1217 03F6  
                           u1137 078B                             u1057 073A                             u1307 02E2  
                           u1227 0433                             u1147 0795                             u1067 0744  
                           u1317 0308                             u1237 043D                             u1157 079F  
                           u1077 074E                             _LATA 0018                             _LATB 0019  
                           u1327 0364                             u1247 02A1                             u1167 07AA  
                           u1087 0758                             _LATC 001A                             u1337 03A1  
                           u1257 02A8                             u1177 07B5                             u1097 0762  
                           u1347 03AA                             u1267 02AF                             u1187 07C0  
                           u1277 02B6                             u1197 07CB                             u1287 02BD  
                           u1297 02C4         __size_of_secuencias_leds 00F8                             _dbuf 00A0  
                           _main 0EEB                             _menu 0F3E                             _prec 0024  
                           _nout 0020                             fsr0h 0005                             fsr1h 0007  
                           indf0 0000                             fsr0l 0004                             indf1 0001  
                           fsr1l 0006                             btemp 007E                             start 0002  
                __end_of_Lcd_Cmd 03B1                       _Lcd_Chr_CP 03B1                   Lcd_Out2@buffer 0074  
 __size_of_OSCILLATOR_Initialize 0005    __end_of_OSCILLATOR_Initialize 0E02                            ?_main 0070  
                          ?_menu 0070                            STR_10 08CD                            STR_11 084E  
                          STR_20 0800                            STR_12 0800                            STR_21 0800  
                          STR_13 0829                            STR_30 08B9                            STR_22 08B9  
                          STR_14 0815                            STR_31 089E                            STR_23 0870  
                          STR_15 085F                            STR_32 0800                            STR_24 0800  
                          STR_16 083C                            STR_25 0800                            STR_17 0800  
                          STR_26 08B9                            STR_18 08B9                            STR_27 08AC  
                          STR_19 088F                            STR_28 0800                            STR_29 0800  
                          _OSCEN 0891                     vfpfcnvrt@fmt 0078                            _TRISA 0012  
                          _TRISB 0013                            _TRISC 0014                            _flags 0026  
                          _fputc 0E9C                            _width 0022                            _putch 0005  
                          status 0003                            wtemp0 007E                  __end_of_sprintf 0E2B  
       __end_of_secuencias_leds3 07ED         __end_of_secuencias_leds4 05E9                 __end_of_Lcd_Init 031F  
               __end_of_Lcd_Out2 0E9C                  __initialization 07ED                     __end_of_main 0F3E  
                   __end_of_menu 0F9C                           ??_main 007E                           ??_menu 0050  
                         ?_fputc 0070                           _ANSELA 1F38                           ?_putch 0070  
                         _ANSELC 1F4E                           _ODCONA 1F3A                           _ODCONC 1F50  
                         _INLVLA 1F3C                           _INLVLC 1F52                           _OSCFRQ 0893  
                      ??_Lcd_Cmd 0070                 __end_of_coctel_1 0116                 __end_of_coctel_2 0195  
               __end_of_coctel_3 0214                 __end_of_coctel_4 0293                     vfprintf@cfmt 0044  
              ??_secuencias_leds 0070                      ?_Lcd_Chr_CP 0070                           _saludo 0444  
                         fputc@c 0070                           putch@c 0070                 __end_of_vfprintf 0E53  
                      ??_sprintf 0048          __end_of__initialization 07FD                   __pcstackCOMMON 0070  
                  __end_of_fputc 0EEB                    __end_of_putch 0006               __size_of_despedida 0064  
                      ?_Lcd_Init 0070                        ?_Lcd_Out2 0073                          ??_fputc 0073  
            __size_of_Lcd_Chr_CP 0093                          ??_putch 0070                       __pbssBANK0 0020  
                     __pbssBANK1 00A0                       __pmaintext 0EEB                          ?_saludo 0070  
             __size_of_vfpfcnvrt 007A                          _OSCTUNE 0892                       ??_Lcd_Init 0073  
                     ??_Lcd_Out2 0075                          _SLRCONA 1F3B                          _SLRCONC 1F51  
                      ?_coctel_1 0070                        ?_coctel_2 0070                        ?_coctel_3 0070  
                      ?_coctel_4 0070                          _Lcd_Cmd 031F                __end_of_despedida 1000  
              ?_secuencias_leds3 0070                ?_secuencias_leds4 0070               ??_secuencias_leds3 0070  
             ??_secuencias_leds4 0070                        ?_vfprintf 007B                  __size_of_saludo 00C7  
                        __ptext1 0444                          __ptext2 0F3E                          __ptext3 0F9C  
                        __ptext4 0214                          __ptext5 0195                          __ptext6 0116  
                        __ptext7 05E9                          __ptext8 0097                          __ptext9 0E08  
          _OSCILLATOR_Initialize 0DFD         ??_PIN_MANAGER_Initialize 0070                       ??_coctel_1 0050  
                     ??_coctel_2 0050                       ??_coctel_3 0050                       ??_coctel_4 0050  
                        _sprintf 0E08                          clrloop0 0E03             end_of_initialization 07FD  
                _secuencias_leds 05E9                          fputc@fp 0072                __end_of_vfpfcnvrt 0097  
                   ??_Lcd_Chr_CP 0070                        Lcd_Out2@x 0073                        Lcd_Out2@y 0077  
                     ??_vfprintf 0041                        _PORTBbits 000D                        _PORTCbits 000E  
                      _TRISBbits 0013                        _TRISCbits 0014               __end_of_Lcd_Chr_CP 0444  
                    vfpfcnvrt@ap 0079                      vfpfcnvrt@fp 007A           ?_OSCILLATOR_Initialize 0070  
                 __end_of_saludo 050B              start_initialization 07ED          __end_of_secuencias_leds 06E1  
__size_of_PIN_MANAGER_Initialize 0017                __size_of_Lcd_Init 008C                __size_of_Lcd_Out2 0049  
                    vfprintf@fmt 007B                         ??_saludo 0050                        ___latbits 0001  
                  __pcstackBANK0 003C                __size_of_coctel_1 007F                __size_of_coctel_2 007F  
              __size_of_coctel_3 007F                __size_of_coctel_4 007F                         ?_Lcd_Cmd 0070  
         _PIN_MANAGER_Initialize 0006                        _despedida 0F9C                __size_of_vfprintf 0028  
      __size_of_secuencias_leds3 010C        __size_of_secuencias_leds4 00DE                 ?_secuencias_leds 0070  
                       ?_sprintf 0046                   __size_of_fputc 004F                   __size_of_putch 0001  
                       _LATAbits 0018                         _LATBbits 0019                        clear_ram0 0E02  
                     ?_despedida 0070                        _vfpfcnvrt 001D                     Lcd_Init@data 0074  
                   Lcd_Out2@data 0078                         _Lcd_Init 0293                         _Lcd_Out2 0E53  
               __size_of_Lcd_Cmd 0092                       vfprintf@ap 007D                       vfprintf@fp 0043  
        ??_OSCILLATOR_Initialize 0070                       ?_vfpfcnvrt 0078                       sprintf@fmt 0046  
                 Lcd_Chr_CP@data 0072                         __ptext10 0E2B                         __ptext11 001D  
                       __ptext20 0293                         __ptext12 0E9C                         __ptext21 031F  
                       __ptext13 0005                         __ptext14 050B                         __ptext15 06E1  
                       __ptext16 0E53                         __ptext17 03B1                         __ptext18 0006  
                       __ptext19 0DFD                         _coctel_1 0097                         _coctel_2 0116  
                       _coctel_3 0195                         _coctel_4 0214                 __size_of_sprintf 0023  
                    Lcd_Cmd@data 0072                    __size_of_main 0053                    __size_of_menu 005E  
                    ??_despedida 0050                         _vfprintf 0E2B                secuencias_leds3@i 0071  
              secuencias_leds4@i 0071                 _secuencias_leds3 06E1                 _secuencias_leds4 050B  
                 __pstringtext10 089E                   __pstringtext11 08AC                   __pstringtext12 08B9  
                 __pstringtext13 08C4                   __pstringtext14 08CD                   __pstringtext15 08D5  
                 __pstringtext16 0000                        sprintf@ap 0049          ?_PIN_MANAGER_Initialize 0070  
               secuencias_leds@i 0071                      ??_vfpfcnvrt 003C                    __pstringtext1 0800  
                  __pstringtext2 0815                    __pstringtext3 0829                    __pstringtext4 083C  
                  __pstringtext5 084E                    __pstringtext6 085F                    __pstringtext7 0870  
                  __pstringtext8 0880                    __pstringtext9 088F                         sprintf@f 004A  
                       sprintf@s 004F   __end_of_PIN_MANAGER_Initialize 001D  
